ARM GAS  C:\Users\User\AppData\Local\Temp\ccfjdDwd.s 			page 1


   1              		.cpu cortex-m4
   2              		.arch armv7e-m
   3              		.fpu fpv4-sp-d16
   4              		.eabi_attribute 27, 1
   5              		.eabi_attribute 28, 1
   6              		.eabi_attribute 20, 1
   7              		.eabi_attribute 21, 1
   8              		.eabi_attribute 23, 3
   9              		.eabi_attribute 24, 1
  10              		.eabi_attribute 25, 1
  11              		.eabi_attribute 26, 1
  12              		.eabi_attribute 30, 1
  13              		.eabi_attribute 34, 1
  14              		.eabi_attribute 18, 4
  15              		.file	"adc.c"
  16              		.text
  17              	.Ltext0:
  18              		.cfi_sections	.debug_frame
  19              		.section	.text.MX_ADC1_Init,"ax",%progbits
  20              		.align	1
  21              		.global	MX_ADC1_Init
  22              		.syntax unified
  23              		.thumb
  24              		.thumb_func
  26              	MX_ADC1_Init:
  27              	.LFB123:
  28              		.file 1 "Core/Src/adc.c"
   1:Core/Src/adc.c **** /* USER CODE BEGIN Header */
   2:Core/Src/adc.c **** /**
   3:Core/Src/adc.c ****   ******************************************************************************
   4:Core/Src/adc.c ****   * @file    adc.c
   5:Core/Src/adc.c ****   * @brief   This file provides code for the configuration
   6:Core/Src/adc.c ****   *          of the ADC instances.
   7:Core/Src/adc.c ****   ******************************************************************************
   8:Core/Src/adc.c ****   * @attention
   9:Core/Src/adc.c ****   *
  10:Core/Src/adc.c ****   * Copyright (c) 2023 STMicroelectronics.
  11:Core/Src/adc.c ****   * All rights reserved.
  12:Core/Src/adc.c ****   *
  13:Core/Src/adc.c ****   * This software is licensed under terms that can be found in the LICENSE file
  14:Core/Src/adc.c ****   * in the root directory of this software component.
  15:Core/Src/adc.c ****   * If no LICENSE file comes with this software, it is provided AS-IS.
  16:Core/Src/adc.c ****   *
  17:Core/Src/adc.c ****   ******************************************************************************
  18:Core/Src/adc.c ****   */
  19:Core/Src/adc.c **** /* USER CODE END Header */
  20:Core/Src/adc.c **** /* Includes ------------------------------------------------------------------*/
  21:Core/Src/adc.c **** #include "adc.h"
  22:Core/Src/adc.c **** 
  23:Core/Src/adc.c **** /* USER CODE BEGIN 0 */
  24:Core/Src/adc.c **** 
  25:Core/Src/adc.c **** /* USER CODE END 0 */
  26:Core/Src/adc.c **** 
  27:Core/Src/adc.c **** ADC_HandleTypeDef hadc1;
  28:Core/Src/adc.c **** ADC_HandleTypeDef hadc2;
  29:Core/Src/adc.c **** DMA_HandleTypeDef hdma_adc1;
  30:Core/Src/adc.c **** DMA_HandleTypeDef hdma_adc2;
ARM GAS  C:\Users\User\AppData\Local\Temp\ccfjdDwd.s 			page 2


  31:Core/Src/adc.c **** 
  32:Core/Src/adc.c **** /* ADC1 init function */
  33:Core/Src/adc.c **** void MX_ADC1_Init(void)
  34:Core/Src/adc.c **** {
  29              		.loc 1 34 1 view -0
  30              		.cfi_startproc
  31              		@ args = 0, pretend = 0, frame = 40
  32              		@ frame_needed = 0, uses_anonymous_args = 0
  33 0000 00B5     		push	{lr}
  34              	.LCFI0:
  35              		.cfi_def_cfa_offset 4
  36              		.cfi_offset 14, -4
  37 0002 8BB0     		sub	sp, sp, #44
  38              	.LCFI1:
  39              		.cfi_def_cfa_offset 48
  35:Core/Src/adc.c **** 
  36:Core/Src/adc.c ****   /* USER CODE BEGIN ADC1_Init 0 */
  37:Core/Src/adc.c **** 
  38:Core/Src/adc.c ****   /* USER CODE END ADC1_Init 0 */
  39:Core/Src/adc.c **** 
  40:Core/Src/adc.c ****   ADC_MultiModeTypeDef multimode = {0};
  40              		.loc 1 40 3 view .LVU1
  41              		.loc 1 40 24 is_stmt 0 view .LVU2
  42 0004 0023     		movs	r3, #0
  43 0006 0793     		str	r3, [sp, #28]
  44 0008 0893     		str	r3, [sp, #32]
  45 000a 0993     		str	r3, [sp, #36]
  41:Core/Src/adc.c ****   ADC_ChannelConfTypeDef sConfig = {0};
  46              		.loc 1 41 3 is_stmt 1 view .LVU3
  47              		.loc 1 41 26 is_stmt 0 view .LVU4
  48 000c 0193     		str	r3, [sp, #4]
  49 000e 0293     		str	r3, [sp, #8]
  50 0010 0393     		str	r3, [sp, #12]
  51 0012 0493     		str	r3, [sp, #16]
  52 0014 0593     		str	r3, [sp, #20]
  53 0016 0693     		str	r3, [sp, #24]
  42:Core/Src/adc.c **** 
  43:Core/Src/adc.c ****   /* USER CODE BEGIN ADC1_Init 1 */
  44:Core/Src/adc.c **** 
  45:Core/Src/adc.c ****   /* USER CODE END ADC1_Init 1 */
  46:Core/Src/adc.c **** 
  47:Core/Src/adc.c ****   /** Common config
  48:Core/Src/adc.c ****   */
  49:Core/Src/adc.c ****   hadc1.Instance = ADC1;
  54              		.loc 1 49 3 is_stmt 1 view .LVU5
  55              		.loc 1 49 18 is_stmt 0 view .LVU6
  56 0018 2348     		ldr	r0, .L11
  57 001a 4FF0A042 		mov	r2, #1342177280
  58 001e 0260     		str	r2, [r0]
  50:Core/Src/adc.c ****   hadc1.Init.ClockPrescaler = ADC_CLOCK_SYNC_PCLK_DIV4;
  59              		.loc 1 50 3 is_stmt 1 view .LVU7
  60              		.loc 1 50 29 is_stmt 0 view .LVU8
  61 0020 4FF44032 		mov	r2, #196608
  62 0024 4260     		str	r2, [r0, #4]
  51:Core/Src/adc.c ****   hadc1.Init.Resolution = ADC_RESOLUTION_12B;
  63              		.loc 1 51 3 is_stmt 1 view .LVU9
  64              		.loc 1 51 25 is_stmt 0 view .LVU10
ARM GAS  C:\Users\User\AppData\Local\Temp\ccfjdDwd.s 			page 3


  65 0026 8360     		str	r3, [r0, #8]
  52:Core/Src/adc.c ****   hadc1.Init.ScanConvMode = ADC_SCAN_ENABLE;
  66              		.loc 1 52 3 is_stmt 1 view .LVU11
  67              		.loc 1 52 27 is_stmt 0 view .LVU12
  68 0028 0122     		movs	r2, #1
  69 002a 0261     		str	r2, [r0, #16]
  53:Core/Src/adc.c ****   hadc1.Init.ContinuousConvMode = ENABLE;
  70              		.loc 1 53 3 is_stmt 1 view .LVU13
  71              		.loc 1 53 33 is_stmt 0 view .LVU14
  72 002c 4276     		strb	r2, [r0, #25]
  54:Core/Src/adc.c ****   hadc1.Init.DiscontinuousConvMode = DISABLE;
  73              		.loc 1 54 3 is_stmt 1 view .LVU15
  74              		.loc 1 54 36 is_stmt 0 view .LVU16
  75 002e 80F82030 		strb	r3, [r0, #32]
  55:Core/Src/adc.c ****   hadc1.Init.ExternalTrigConvEdge = ADC_EXTERNALTRIGCONVEDGE_NONE;
  76              		.loc 1 55 3 is_stmt 1 view .LVU17
  77              		.loc 1 55 35 is_stmt 0 view .LVU18
  78 0032 C362     		str	r3, [r0, #44]
  56:Core/Src/adc.c ****   hadc1.Init.ExternalTrigConv = ADC_SOFTWARE_START;
  79              		.loc 1 56 3 is_stmt 1 view .LVU19
  80              		.loc 1 56 31 is_stmt 0 view .LVU20
  81 0034 8262     		str	r2, [r0, #40]
  57:Core/Src/adc.c ****   hadc1.Init.DataAlign = ADC_DATAALIGN_RIGHT;
  82              		.loc 1 57 3 is_stmt 1 view .LVU21
  83              		.loc 1 57 24 is_stmt 0 view .LVU22
  84 0036 C360     		str	r3, [r0, #12]
  58:Core/Src/adc.c ****   hadc1.Init.NbrOfConversion = 2;
  85              		.loc 1 58 3 is_stmt 1 view .LVU23
  86              		.loc 1 58 30 is_stmt 0 view .LVU24
  87 0038 0221     		movs	r1, #2
  88 003a C161     		str	r1, [r0, #28]
  59:Core/Src/adc.c ****   hadc1.Init.DMAContinuousRequests = ENABLE;
  89              		.loc 1 59 3 is_stmt 1 view .LVU25
  90              		.loc 1 59 36 is_stmt 0 view .LVU26
  91 003c 80F83020 		strb	r2, [r0, #48]
  60:Core/Src/adc.c ****   hadc1.Init.EOCSelection = ADC_EOC_SINGLE_CONV;
  92              		.loc 1 60 3 is_stmt 1 view .LVU27
  93              		.loc 1 60 27 is_stmt 0 view .LVU28
  94 0040 0422     		movs	r2, #4
  95 0042 4261     		str	r2, [r0, #20]
  61:Core/Src/adc.c ****   hadc1.Init.LowPowerAutoWait = DISABLE;
  96              		.loc 1 61 3 is_stmt 1 view .LVU29
  97              		.loc 1 61 31 is_stmt 0 view .LVU30
  98 0044 0376     		strb	r3, [r0, #24]
  62:Core/Src/adc.c ****   hadc1.Init.Overrun = ADC_OVR_DATA_OVERWRITTEN;
  99              		.loc 1 62 3 is_stmt 1 view .LVU31
 100              		.loc 1 62 22 is_stmt 0 view .LVU32
 101 0046 4363     		str	r3, [r0, #52]
  63:Core/Src/adc.c ****   if (HAL_ADC_Init(&hadc1) != HAL_OK)
 102              		.loc 1 63 3 is_stmt 1 view .LVU33
 103              		.loc 1 63 7 is_stmt 0 view .LVU34
 104 0048 FFF7FEFF 		bl	HAL_ADC_Init
 105              	.LVL0:
 106              		.loc 1 63 6 view .LVU35
 107 004c 00BB     		cbnz	r0, .L7
 108              	.L2:
  64:Core/Src/adc.c ****   {
ARM GAS  C:\Users\User\AppData\Local\Temp\ccfjdDwd.s 			page 4


  65:Core/Src/adc.c ****     Error_Handler();
  66:Core/Src/adc.c ****   }
  67:Core/Src/adc.c **** 
  68:Core/Src/adc.c ****   /** Configure the ADC multi-mode
  69:Core/Src/adc.c ****   */
  70:Core/Src/adc.c ****   multimode.Mode = ADC_MODE_INDEPENDENT;
 109              		.loc 1 70 3 is_stmt 1 view .LVU36
 110              		.loc 1 70 18 is_stmt 0 view .LVU37
 111 004e 0023     		movs	r3, #0
 112 0050 0793     		str	r3, [sp, #28]
  71:Core/Src/adc.c ****   if (HAL_ADCEx_MultiModeConfigChannel(&hadc1, &multimode) != HAL_OK)
 113              		.loc 1 71 3 is_stmt 1 view .LVU38
 114              		.loc 1 71 7 is_stmt 0 view .LVU39
 115 0052 07A9     		add	r1, sp, #28
 116 0054 1448     		ldr	r0, .L11
 117 0056 FFF7FEFF 		bl	HAL_ADCEx_MultiModeConfigChannel
 118              	.LVL1:
 119              		.loc 1 71 6 view .LVU40
 120 005a E0B9     		cbnz	r0, .L8
 121              	.L3:
  72:Core/Src/adc.c ****   {
  73:Core/Src/adc.c ****     Error_Handler();
  74:Core/Src/adc.c ****   }
  75:Core/Src/adc.c **** 
  76:Core/Src/adc.c ****   /** Configure Regular Channel
  77:Core/Src/adc.c ****   */
  78:Core/Src/adc.c ****   sConfig.Channel = ADC_CHANNEL_1;
 122              		.loc 1 78 3 is_stmt 1 view .LVU41
 123              		.loc 1 78 19 is_stmt 0 view .LVU42
 124 005c 0123     		movs	r3, #1
 125 005e 0193     		str	r3, [sp, #4]
  79:Core/Src/adc.c ****   sConfig.Rank = ADC_REGULAR_RANK_1;
 126              		.loc 1 79 3 is_stmt 1 view .LVU43
 127              		.loc 1 79 16 is_stmt 0 view .LVU44
 128 0060 0293     		str	r3, [sp, #8]
  80:Core/Src/adc.c ****   sConfig.SingleDiff = ADC_SINGLE_ENDED;
 129              		.loc 1 80 3 is_stmt 1 view .LVU45
 130              		.loc 1 80 22 is_stmt 0 view .LVU46
 131 0062 0023     		movs	r3, #0
 132 0064 0493     		str	r3, [sp, #16]
  81:Core/Src/adc.c ****   sConfig.SamplingTime = ADC_SAMPLETIME_19CYCLES_5;
 133              		.loc 1 81 3 is_stmt 1 view .LVU47
 134              		.loc 1 81 24 is_stmt 0 view .LVU48
 135 0066 0422     		movs	r2, #4
 136 0068 0392     		str	r2, [sp, #12]
  82:Core/Src/adc.c ****   sConfig.OffsetNumber = ADC_OFFSET_NONE;
 137              		.loc 1 82 3 is_stmt 1 view .LVU49
 138              		.loc 1 82 24 is_stmt 0 view .LVU50
 139 006a 0593     		str	r3, [sp, #20]
  83:Core/Src/adc.c ****   sConfig.Offset = 0;
 140              		.loc 1 83 3 is_stmt 1 view .LVU51
 141              		.loc 1 83 18 is_stmt 0 view .LVU52
 142 006c 0693     		str	r3, [sp, #24]
  84:Core/Src/adc.c ****   if (HAL_ADC_ConfigChannel(&hadc1, &sConfig) != HAL_OK)
 143              		.loc 1 84 3 is_stmt 1 view .LVU53
 144              		.loc 1 84 7 is_stmt 0 view .LVU54
 145 006e 0DEB0201 		add	r1, sp, r2
ARM GAS  C:\Users\User\AppData\Local\Temp\ccfjdDwd.s 			page 5


 146 0072 0D48     		ldr	r0, .L11
 147 0074 FFF7FEFF 		bl	HAL_ADC_ConfigChannel
 148              	.LVL2:
 149              		.loc 1 84 6 view .LVU55
 150 0078 80B9     		cbnz	r0, .L9
 151              	.L4:
  85:Core/Src/adc.c ****   {
  86:Core/Src/adc.c ****     Error_Handler();
  87:Core/Src/adc.c ****   }
  88:Core/Src/adc.c **** 
  89:Core/Src/adc.c ****   /** Configure Regular Channel
  90:Core/Src/adc.c ****   */
  91:Core/Src/adc.c ****   sConfig.Channel = ADC_CHANNEL_2;
 152              		.loc 1 91 3 is_stmt 1 view .LVU56
 153              		.loc 1 91 19 is_stmt 0 view .LVU57
 154 007a 0223     		movs	r3, #2
 155 007c 0193     		str	r3, [sp, #4]
  92:Core/Src/adc.c ****   sConfig.Rank = ADC_REGULAR_RANK_2;
 156              		.loc 1 92 3 is_stmt 1 view .LVU58
 157              		.loc 1 92 16 is_stmt 0 view .LVU59
 158 007e 0293     		str	r3, [sp, #8]
  93:Core/Src/adc.c ****   if (HAL_ADC_ConfigChannel(&hadc1, &sConfig) != HAL_OK)
 159              		.loc 1 93 3 is_stmt 1 view .LVU60
 160              		.loc 1 93 7 is_stmt 0 view .LVU61
 161 0080 01A9     		add	r1, sp, #4
 162 0082 0948     		ldr	r0, .L11
 163 0084 FFF7FEFF 		bl	HAL_ADC_ConfigChannel
 164              	.LVL3:
 165              		.loc 1 93 6 view .LVU62
 166 0088 58B9     		cbnz	r0, .L10
 167              	.L1:
  94:Core/Src/adc.c ****   {
  95:Core/Src/adc.c ****     Error_Handler();
  96:Core/Src/adc.c ****   }
  97:Core/Src/adc.c ****   /* USER CODE BEGIN ADC1_Init 2 */
  98:Core/Src/adc.c **** 
  99:Core/Src/adc.c ****   /* USER CODE END ADC1_Init 2 */
 100:Core/Src/adc.c **** 
 101:Core/Src/adc.c **** }
 168              		.loc 1 101 1 view .LVU63
 169 008a 0BB0     		add	sp, sp, #44
 170              	.LCFI2:
 171              		.cfi_remember_state
 172              		.cfi_def_cfa_offset 4
 173              		@ sp needed
 174 008c 5DF804FB 		ldr	pc, [sp], #4
 175              	.L7:
 176              	.LCFI3:
 177              		.cfi_restore_state
  65:Core/Src/adc.c ****   }
 178              		.loc 1 65 5 is_stmt 1 view .LVU64
 179 0090 FFF7FEFF 		bl	Error_Handler
 180              	.LVL4:
 181 0094 DBE7     		b	.L2
 182              	.L8:
  73:Core/Src/adc.c ****   }
 183              		.loc 1 73 5 view .LVU65
ARM GAS  C:\Users\User\AppData\Local\Temp\ccfjdDwd.s 			page 6


 184 0096 FFF7FEFF 		bl	Error_Handler
 185              	.LVL5:
 186 009a DFE7     		b	.L3
 187              	.L9:
  86:Core/Src/adc.c ****   }
 188              		.loc 1 86 5 view .LVU66
 189 009c FFF7FEFF 		bl	Error_Handler
 190              	.LVL6:
 191 00a0 EBE7     		b	.L4
 192              	.L10:
  95:Core/Src/adc.c ****   }
 193              		.loc 1 95 5 view .LVU67
 194 00a2 FFF7FEFF 		bl	Error_Handler
 195              	.LVL7:
 196              		.loc 1 101 1 is_stmt 0 view .LVU68
 197 00a6 F0E7     		b	.L1
 198              	.L12:
 199              		.align	2
 200              	.L11:
 201 00a8 00000000 		.word	.LANCHOR0
 202              		.cfi_endproc
 203              	.LFE123:
 205              		.section	.text.MX_ADC2_Init,"ax",%progbits
 206              		.align	1
 207              		.global	MX_ADC2_Init
 208              		.syntax unified
 209              		.thumb
 210              		.thumb_func
 212              	MX_ADC2_Init:
 213              	.LFB124:
 102:Core/Src/adc.c **** /* ADC2 init function */
 103:Core/Src/adc.c **** void MX_ADC2_Init(void)
 104:Core/Src/adc.c **** {
 214              		.loc 1 104 1 is_stmt 1 view -0
 215              		.cfi_startproc
 216              		@ args = 0, pretend = 0, frame = 24
 217              		@ frame_needed = 0, uses_anonymous_args = 0
 218 0000 00B5     		push	{lr}
 219              	.LCFI4:
 220              		.cfi_def_cfa_offset 4
 221              		.cfi_offset 14, -4
 222 0002 87B0     		sub	sp, sp, #28
 223              	.LCFI5:
 224              		.cfi_def_cfa_offset 32
 105:Core/Src/adc.c **** 
 106:Core/Src/adc.c ****   /* USER CODE BEGIN ADC2_Init 0 */
 107:Core/Src/adc.c **** 
 108:Core/Src/adc.c ****   /* USER CODE END ADC2_Init 0 */
 109:Core/Src/adc.c **** 
 110:Core/Src/adc.c ****   ADC_ChannelConfTypeDef sConfig = {0};
 225              		.loc 1 110 3 view .LVU70
 226              		.loc 1 110 26 is_stmt 0 view .LVU71
 227 0004 0023     		movs	r3, #0
 228 0006 0093     		str	r3, [sp]
 229 0008 0193     		str	r3, [sp, #4]
 230 000a 0293     		str	r3, [sp, #8]
 231 000c 0393     		str	r3, [sp, #12]
ARM GAS  C:\Users\User\AppData\Local\Temp\ccfjdDwd.s 			page 7


 232 000e 0493     		str	r3, [sp, #16]
 233 0010 0593     		str	r3, [sp, #20]
 111:Core/Src/adc.c **** 
 112:Core/Src/adc.c ****   /* USER CODE BEGIN ADC2_Init 1 */
 113:Core/Src/adc.c **** 
 114:Core/Src/adc.c ****   /* USER CODE END ADC2_Init 1 */
 115:Core/Src/adc.c **** 
 116:Core/Src/adc.c ****   /** Common config
 117:Core/Src/adc.c ****   */
 118:Core/Src/adc.c ****   hadc2.Instance = ADC2;
 234              		.loc 1 118 3 is_stmt 1 view .LVU72
 235              		.loc 1 118 18 is_stmt 0 view .LVU73
 236 0012 2348     		ldr	r0, .L23
 237 0014 234A     		ldr	r2, .L23+4
 238 0016 0260     		str	r2, [r0]
 119:Core/Src/adc.c ****   hadc2.Init.ClockPrescaler = ADC_CLOCK_SYNC_PCLK_DIV4;
 239              		.loc 1 119 3 is_stmt 1 view .LVU74
 240              		.loc 1 119 29 is_stmt 0 view .LVU75
 241 0018 4FF44032 		mov	r2, #196608
 242 001c 4260     		str	r2, [r0, #4]
 120:Core/Src/adc.c ****   hadc2.Init.Resolution = ADC_RESOLUTION_12B;
 243              		.loc 1 120 3 is_stmt 1 view .LVU76
 244              		.loc 1 120 25 is_stmt 0 view .LVU77
 245 001e 8360     		str	r3, [r0, #8]
 121:Core/Src/adc.c ****   hadc2.Init.ScanConvMode = ADC_SCAN_ENABLE;
 246              		.loc 1 121 3 is_stmt 1 view .LVU78
 247              		.loc 1 121 27 is_stmt 0 view .LVU79
 248 0020 0122     		movs	r2, #1
 249 0022 0261     		str	r2, [r0, #16]
 122:Core/Src/adc.c ****   hadc2.Init.ContinuousConvMode = ENABLE;
 250              		.loc 1 122 3 is_stmt 1 view .LVU80
 251              		.loc 1 122 33 is_stmt 0 view .LVU81
 252 0024 4276     		strb	r2, [r0, #25]
 123:Core/Src/adc.c ****   hadc2.Init.DiscontinuousConvMode = DISABLE;
 253              		.loc 1 123 3 is_stmt 1 view .LVU82
 254              		.loc 1 123 36 is_stmt 0 view .LVU83
 255 0026 80F82030 		strb	r3, [r0, #32]
 124:Core/Src/adc.c ****   hadc2.Init.ExternalTrigConvEdge = ADC_EXTERNALTRIGCONVEDGE_NONE;
 256              		.loc 1 124 3 is_stmt 1 view .LVU84
 257              		.loc 1 124 35 is_stmt 0 view .LVU85
 258 002a C362     		str	r3, [r0, #44]
 125:Core/Src/adc.c ****   hadc2.Init.ExternalTrigConv = ADC_SOFTWARE_START;
 259              		.loc 1 125 3 is_stmt 1 view .LVU86
 260              		.loc 1 125 31 is_stmt 0 view .LVU87
 261 002c 8262     		str	r2, [r0, #40]
 126:Core/Src/adc.c ****   hadc2.Init.DataAlign = ADC_DATAALIGN_RIGHT;
 262              		.loc 1 126 3 is_stmt 1 view .LVU88
 263              		.loc 1 126 24 is_stmt 0 view .LVU89
 264 002e C360     		str	r3, [r0, #12]
 127:Core/Src/adc.c ****   hadc2.Init.NbrOfConversion = 3;
 265              		.loc 1 127 3 is_stmt 1 view .LVU90
 266              		.loc 1 127 30 is_stmt 0 view .LVU91
 267 0030 0321     		movs	r1, #3
 268 0032 C161     		str	r1, [r0, #28]
 128:Core/Src/adc.c ****   hadc2.Init.DMAContinuousRequests = ENABLE;
 269              		.loc 1 128 3 is_stmt 1 view .LVU92
 270              		.loc 1 128 36 is_stmt 0 view .LVU93
ARM GAS  C:\Users\User\AppData\Local\Temp\ccfjdDwd.s 			page 8


 271 0034 80F83020 		strb	r2, [r0, #48]
 129:Core/Src/adc.c ****   hadc2.Init.EOCSelection = ADC_EOC_SINGLE_CONV;
 272              		.loc 1 129 3 is_stmt 1 view .LVU94
 273              		.loc 1 129 27 is_stmt 0 view .LVU95
 274 0038 0422     		movs	r2, #4
 275 003a 4261     		str	r2, [r0, #20]
 130:Core/Src/adc.c ****   hadc2.Init.LowPowerAutoWait = DISABLE;
 276              		.loc 1 130 3 is_stmt 1 view .LVU96
 277              		.loc 1 130 31 is_stmt 0 view .LVU97
 278 003c 0376     		strb	r3, [r0, #24]
 131:Core/Src/adc.c ****   hadc2.Init.Overrun = ADC_OVR_DATA_OVERWRITTEN;
 279              		.loc 1 131 3 is_stmt 1 view .LVU98
 280              		.loc 1 131 22 is_stmt 0 view .LVU99
 281 003e 4363     		str	r3, [r0, #52]
 132:Core/Src/adc.c ****   if (HAL_ADC_Init(&hadc2) != HAL_OK)
 282              		.loc 1 132 3 is_stmt 1 view .LVU100
 283              		.loc 1 132 7 is_stmt 0 view .LVU101
 284 0040 FFF7FEFF 		bl	HAL_ADC_Init
 285              	.LVL8:
 286              		.loc 1 132 6 view .LVU102
 287 0044 00BB     		cbnz	r0, .L19
 288              	.L14:
 133:Core/Src/adc.c ****   {
 134:Core/Src/adc.c ****     Error_Handler();
 135:Core/Src/adc.c ****   }
 136:Core/Src/adc.c **** 
 137:Core/Src/adc.c ****   /** Configure Regular Channel
 138:Core/Src/adc.c ****   */
 139:Core/Src/adc.c ****   sConfig.Channel = ADC_CHANNEL_1;
 289              		.loc 1 139 3 is_stmt 1 view .LVU103
 290              		.loc 1 139 19 is_stmt 0 view .LVU104
 291 0046 0123     		movs	r3, #1
 292 0048 0093     		str	r3, [sp]
 140:Core/Src/adc.c ****   sConfig.Rank = ADC_REGULAR_RANK_1;
 293              		.loc 1 140 3 is_stmt 1 view .LVU105
 294              		.loc 1 140 16 is_stmt 0 view .LVU106
 295 004a 0193     		str	r3, [sp, #4]
 141:Core/Src/adc.c ****   sConfig.SingleDiff = ADC_SINGLE_ENDED;
 296              		.loc 1 141 3 is_stmt 1 view .LVU107
 297              		.loc 1 141 22 is_stmt 0 view .LVU108
 298 004c 0023     		movs	r3, #0
 299 004e 0393     		str	r3, [sp, #12]
 142:Core/Src/adc.c ****   sConfig.SamplingTime = ADC_SAMPLETIME_19CYCLES_5;
 300              		.loc 1 142 3 is_stmt 1 view .LVU109
 301              		.loc 1 142 24 is_stmt 0 view .LVU110
 302 0050 0422     		movs	r2, #4
 303 0052 0292     		str	r2, [sp, #8]
 143:Core/Src/adc.c ****   sConfig.OffsetNumber = ADC_OFFSET_NONE;
 304              		.loc 1 143 3 is_stmt 1 view .LVU111
 305              		.loc 1 143 24 is_stmt 0 view .LVU112
 306 0054 0493     		str	r3, [sp, #16]
 144:Core/Src/adc.c ****   sConfig.Offset = 0;
 307              		.loc 1 144 3 is_stmt 1 view .LVU113
 308              		.loc 1 144 18 is_stmt 0 view .LVU114
 309 0056 0593     		str	r3, [sp, #20]
 145:Core/Src/adc.c ****   if (HAL_ADC_ConfigChannel(&hadc2, &sConfig) != HAL_OK)
 310              		.loc 1 145 3 is_stmt 1 view .LVU115
ARM GAS  C:\Users\User\AppData\Local\Temp\ccfjdDwd.s 			page 9


 311              		.loc 1 145 7 is_stmt 0 view .LVU116
 312 0058 6946     		mov	r1, sp
 313 005a 1148     		ldr	r0, .L23
 314 005c FFF7FEFF 		bl	HAL_ADC_ConfigChannel
 315              	.LVL9:
 316              		.loc 1 145 6 view .LVU117
 317 0060 A8B9     		cbnz	r0, .L20
 318              	.L15:
 146:Core/Src/adc.c ****   {
 147:Core/Src/adc.c ****     Error_Handler();
 148:Core/Src/adc.c ****   }
 149:Core/Src/adc.c **** 
 150:Core/Src/adc.c ****   /** Configure Regular Channel
 151:Core/Src/adc.c ****   */
 152:Core/Src/adc.c ****   sConfig.Channel = ADC_CHANNEL_2;
 319              		.loc 1 152 3 is_stmt 1 view .LVU118
 320              		.loc 1 152 19 is_stmt 0 view .LVU119
 321 0062 0223     		movs	r3, #2
 322 0064 0093     		str	r3, [sp]
 153:Core/Src/adc.c ****   sConfig.Rank = ADC_REGULAR_RANK_2;
 323              		.loc 1 153 3 is_stmt 1 view .LVU120
 324              		.loc 1 153 16 is_stmt 0 view .LVU121
 325 0066 0193     		str	r3, [sp, #4]
 154:Core/Src/adc.c ****   if (HAL_ADC_ConfigChannel(&hadc2, &sConfig) != HAL_OK)
 326              		.loc 1 154 3 is_stmt 1 view .LVU122
 327              		.loc 1 154 7 is_stmt 0 view .LVU123
 328 0068 6946     		mov	r1, sp
 329 006a 0D48     		ldr	r0, .L23
 330 006c FFF7FEFF 		bl	HAL_ADC_ConfigChannel
 331              	.LVL10:
 332              		.loc 1 154 6 view .LVU124
 333 0070 80B9     		cbnz	r0, .L21
 334              	.L16:
 155:Core/Src/adc.c ****   {
 156:Core/Src/adc.c ****     Error_Handler();
 157:Core/Src/adc.c ****   }
 158:Core/Src/adc.c **** 
 159:Core/Src/adc.c ****   /** Configure Regular Channel
 160:Core/Src/adc.c ****   */
 161:Core/Src/adc.c ****   sConfig.Channel = ADC_CHANNEL_3;
 335              		.loc 1 161 3 is_stmt 1 view .LVU125
 336              		.loc 1 161 19 is_stmt 0 view .LVU126
 337 0072 0323     		movs	r3, #3
 338 0074 0093     		str	r3, [sp]
 162:Core/Src/adc.c ****   sConfig.Rank = ADC_REGULAR_RANK_3;
 339              		.loc 1 162 3 is_stmt 1 view .LVU127
 340              		.loc 1 162 16 is_stmt 0 view .LVU128
 341 0076 0193     		str	r3, [sp, #4]
 163:Core/Src/adc.c ****   if (HAL_ADC_ConfigChannel(&hadc2, &sConfig) != HAL_OK)
 342              		.loc 1 163 3 is_stmt 1 view .LVU129
 343              		.loc 1 163 7 is_stmt 0 view .LVU130
 344 0078 6946     		mov	r1, sp
 345 007a 0948     		ldr	r0, .L23
 346 007c FFF7FEFF 		bl	HAL_ADC_ConfigChannel
 347              	.LVL11:
 348              		.loc 1 163 6 view .LVU131
 349 0080 58B9     		cbnz	r0, .L22
ARM GAS  C:\Users\User\AppData\Local\Temp\ccfjdDwd.s 			page 10


 350              	.L13:
 164:Core/Src/adc.c ****   {
 165:Core/Src/adc.c ****     Error_Handler();
 166:Core/Src/adc.c ****   }
 167:Core/Src/adc.c ****   /* USER CODE BEGIN ADC2_Init 2 */
 168:Core/Src/adc.c **** 
 169:Core/Src/adc.c ****   /* USER CODE END ADC2_Init 2 */
 170:Core/Src/adc.c **** 
 171:Core/Src/adc.c **** }
 351              		.loc 1 171 1 view .LVU132
 352 0082 07B0     		add	sp, sp, #28
 353              	.LCFI6:
 354              		.cfi_remember_state
 355              		.cfi_def_cfa_offset 4
 356              		@ sp needed
 357 0084 5DF804FB 		ldr	pc, [sp], #4
 358              	.L19:
 359              	.LCFI7:
 360              		.cfi_restore_state
 134:Core/Src/adc.c ****   }
 361              		.loc 1 134 5 is_stmt 1 view .LVU133
 362 0088 FFF7FEFF 		bl	Error_Handler
 363              	.LVL12:
 364 008c DBE7     		b	.L14
 365              	.L20:
 147:Core/Src/adc.c ****   }
 366              		.loc 1 147 5 view .LVU134
 367 008e FFF7FEFF 		bl	Error_Handler
 368              	.LVL13:
 369 0092 E6E7     		b	.L15
 370              	.L21:
 156:Core/Src/adc.c ****   }
 371              		.loc 1 156 5 view .LVU135
 372 0094 FFF7FEFF 		bl	Error_Handler
 373              	.LVL14:
 374 0098 EBE7     		b	.L16
 375              	.L22:
 165:Core/Src/adc.c ****   }
 376              		.loc 1 165 5 view .LVU136
 377 009a FFF7FEFF 		bl	Error_Handler
 378              	.LVL15:
 379              		.loc 1 171 1 is_stmt 0 view .LVU137
 380 009e F0E7     		b	.L13
 381              	.L24:
 382              		.align	2
 383              	.L23:
 384 00a0 00000000 		.word	.LANCHOR1
 385 00a4 00010050 		.word	1342177536
 386              		.cfi_endproc
 387              	.LFE124:
 389              		.section	.text.HAL_ADC_MspInit,"ax",%progbits
 390              		.align	1
 391              		.global	HAL_ADC_MspInit
 392              		.syntax unified
 393              		.thumb
 394              		.thumb_func
 396              	HAL_ADC_MspInit:
ARM GAS  C:\Users\User\AppData\Local\Temp\ccfjdDwd.s 			page 11


 397              	.LVL16:
 398              	.LFB125:
 172:Core/Src/adc.c **** 
 173:Core/Src/adc.c **** static uint32_t HAL_RCC_ADC12_CLK_ENABLED=0;
 174:Core/Src/adc.c **** 
 175:Core/Src/adc.c **** void HAL_ADC_MspInit(ADC_HandleTypeDef* adcHandle)
 176:Core/Src/adc.c **** {
 399              		.loc 1 176 1 is_stmt 1 view -0
 400              		.cfi_startproc
 401              		@ args = 0, pretend = 0, frame = 40
 402              		@ frame_needed = 0, uses_anonymous_args = 0
 403              		.loc 1 176 1 is_stmt 0 view .LVU139
 404 0000 10B5     		push	{r4, lr}
 405              	.LCFI8:
 406              		.cfi_def_cfa_offset 8
 407              		.cfi_offset 4, -8
 408              		.cfi_offset 14, -4
 409 0002 8AB0     		sub	sp, sp, #40
 410              	.LCFI9:
 411              		.cfi_def_cfa_offset 48
 412 0004 0446     		mov	r4, r0
 177:Core/Src/adc.c **** 
 178:Core/Src/adc.c ****   GPIO_InitTypeDef GPIO_InitStruct = {0};
 413              		.loc 1 178 3 is_stmt 1 view .LVU140
 414              		.loc 1 178 20 is_stmt 0 view .LVU141
 415 0006 0023     		movs	r3, #0
 416 0008 0593     		str	r3, [sp, #20]
 417 000a 0693     		str	r3, [sp, #24]
 418 000c 0793     		str	r3, [sp, #28]
 419 000e 0893     		str	r3, [sp, #32]
 420 0010 0993     		str	r3, [sp, #36]
 179:Core/Src/adc.c ****   if(adcHandle->Instance==ADC1)
 421              		.loc 1 179 3 is_stmt 1 view .LVU142
 422              		.loc 1 179 15 is_stmt 0 view .LVU143
 423 0012 0368     		ldr	r3, [r0]
 424              		.loc 1 179 5 view .LVU144
 425 0014 B3F1A04F 		cmp	r3, #1342177280
 426 0018 04D0     		beq	.L33
 180:Core/Src/adc.c ****   {
 181:Core/Src/adc.c ****   /* USER CODE BEGIN ADC1_MspInit 0 */
 182:Core/Src/adc.c **** 
 183:Core/Src/adc.c ****   /* USER CODE END ADC1_MspInit 0 */
 184:Core/Src/adc.c ****     /* ADC1 clock enable */
 185:Core/Src/adc.c ****     HAL_RCC_ADC12_CLK_ENABLED++;
 186:Core/Src/adc.c ****     if(HAL_RCC_ADC12_CLK_ENABLED==1){
 187:Core/Src/adc.c ****       __HAL_RCC_ADC12_CLK_ENABLE();
 188:Core/Src/adc.c ****     }
 189:Core/Src/adc.c **** 
 190:Core/Src/adc.c ****     __HAL_RCC_GPIOA_CLK_ENABLE();
 191:Core/Src/adc.c ****     /**ADC1 GPIO Configuration
 192:Core/Src/adc.c ****     PA0     ------> ADC1_IN1
 193:Core/Src/adc.c ****     PA1     ------> ADC1_IN2
 194:Core/Src/adc.c ****     */
 195:Core/Src/adc.c ****     GPIO_InitStruct.Pin = GPIO_PIN_0|GPIO_PIN_1;
 196:Core/Src/adc.c ****     GPIO_InitStruct.Mode = GPIO_MODE_ANALOG;
 197:Core/Src/adc.c ****     GPIO_InitStruct.Pull = GPIO_NOPULL;
 198:Core/Src/adc.c ****     HAL_GPIO_Init(GPIOA, &GPIO_InitStruct);
ARM GAS  C:\Users\User\AppData\Local\Temp\ccfjdDwd.s 			page 12


 199:Core/Src/adc.c **** 
 200:Core/Src/adc.c ****     /* ADC1 DMA Init */
 201:Core/Src/adc.c ****     /* ADC1 Init */
 202:Core/Src/adc.c ****     hdma_adc1.Instance = DMA1_Channel1;
 203:Core/Src/adc.c ****     hdma_adc1.Init.Direction = DMA_PERIPH_TO_MEMORY;
 204:Core/Src/adc.c ****     hdma_adc1.Init.PeriphInc = DMA_PINC_DISABLE;
 205:Core/Src/adc.c ****     hdma_adc1.Init.MemInc = DMA_MINC_ENABLE;
 206:Core/Src/adc.c ****     hdma_adc1.Init.PeriphDataAlignment = DMA_PDATAALIGN_HALFWORD;
 207:Core/Src/adc.c ****     hdma_adc1.Init.MemDataAlignment = DMA_MDATAALIGN_HALFWORD;
 208:Core/Src/adc.c ****     hdma_adc1.Init.Mode = DMA_CIRCULAR;
 209:Core/Src/adc.c ****     hdma_adc1.Init.Priority = DMA_PRIORITY_LOW;
 210:Core/Src/adc.c ****     if (HAL_DMA_Init(&hdma_adc1) != HAL_OK)
 211:Core/Src/adc.c ****     {
 212:Core/Src/adc.c ****       Error_Handler();
 213:Core/Src/adc.c ****     }
 214:Core/Src/adc.c **** 
 215:Core/Src/adc.c ****     __HAL_LINKDMA(adcHandle,DMA_Handle,hdma_adc1);
 216:Core/Src/adc.c **** 
 217:Core/Src/adc.c ****   /* USER CODE BEGIN ADC1_MspInit 1 */
 218:Core/Src/adc.c **** 
 219:Core/Src/adc.c ****   /* USER CODE END ADC1_MspInit 1 */
 220:Core/Src/adc.c ****   }
 221:Core/Src/adc.c ****   else if(adcHandle->Instance==ADC2)
 427              		.loc 1 221 8 is_stmt 1 view .LVU145
 428              		.loc 1 221 10 is_stmt 0 view .LVU146
 429 001a 414A     		ldr	r2, .L39
 430 001c 9342     		cmp	r3, r2
 431 001e 3FD0     		beq	.L34
 432              	.LVL17:
 433              	.L25:
 222:Core/Src/adc.c ****   {
 223:Core/Src/adc.c ****   /* USER CODE BEGIN ADC2_MspInit 0 */
 224:Core/Src/adc.c **** 
 225:Core/Src/adc.c ****   /* USER CODE END ADC2_MspInit 0 */
 226:Core/Src/adc.c ****     /* ADC2 clock enable */
 227:Core/Src/adc.c ****     HAL_RCC_ADC12_CLK_ENABLED++;
 228:Core/Src/adc.c ****     if(HAL_RCC_ADC12_CLK_ENABLED==1){
 229:Core/Src/adc.c ****       __HAL_RCC_ADC12_CLK_ENABLE();
 230:Core/Src/adc.c ****     }
 231:Core/Src/adc.c **** 
 232:Core/Src/adc.c ****     __HAL_RCC_GPIOA_CLK_ENABLE();
 233:Core/Src/adc.c ****     /**ADC2 GPIO Configuration
 234:Core/Src/adc.c ****     PA4     ------> ADC2_IN1
 235:Core/Src/adc.c ****     PA5     ------> ADC2_IN2
 236:Core/Src/adc.c ****     PA6     ------> ADC2_IN3
 237:Core/Src/adc.c ****     */
 238:Core/Src/adc.c ****     GPIO_InitStruct.Pin = GPIO_PIN_4|GPIO_PIN_5|GPIO_PIN_6;
 239:Core/Src/adc.c ****     GPIO_InitStruct.Mode = GPIO_MODE_ANALOG;
 240:Core/Src/adc.c ****     GPIO_InitStruct.Pull = GPIO_NOPULL;
 241:Core/Src/adc.c ****     HAL_GPIO_Init(GPIOA, &GPIO_InitStruct);
 242:Core/Src/adc.c **** 
 243:Core/Src/adc.c ****     /* ADC2 DMA Init */
 244:Core/Src/adc.c ****     /* ADC2 Init */
 245:Core/Src/adc.c ****     hdma_adc2.Instance = DMA1_Channel2;
 246:Core/Src/adc.c ****     hdma_adc2.Init.Direction = DMA_PERIPH_TO_MEMORY;
 247:Core/Src/adc.c ****     hdma_adc2.Init.PeriphInc = DMA_PINC_DISABLE;
 248:Core/Src/adc.c ****     hdma_adc2.Init.MemInc = DMA_MINC_ENABLE;
ARM GAS  C:\Users\User\AppData\Local\Temp\ccfjdDwd.s 			page 13


 249:Core/Src/adc.c ****     hdma_adc2.Init.PeriphDataAlignment = DMA_PDATAALIGN_HALFWORD;
 250:Core/Src/adc.c ****     hdma_adc2.Init.MemDataAlignment = DMA_MDATAALIGN_HALFWORD;
 251:Core/Src/adc.c ****     hdma_adc2.Init.Mode = DMA_CIRCULAR;
 252:Core/Src/adc.c ****     hdma_adc2.Init.Priority = DMA_PRIORITY_LOW;
 253:Core/Src/adc.c ****     if (HAL_DMA_Init(&hdma_adc2) != HAL_OK)
 254:Core/Src/adc.c ****     {
 255:Core/Src/adc.c ****       Error_Handler();
 256:Core/Src/adc.c ****     }
 257:Core/Src/adc.c **** 
 258:Core/Src/adc.c ****     __HAL_LINKDMA(adcHandle,DMA_Handle,hdma_adc2);
 259:Core/Src/adc.c **** 
 260:Core/Src/adc.c ****   /* USER CODE BEGIN ADC2_MspInit 1 */
 261:Core/Src/adc.c **** 
 262:Core/Src/adc.c ****   /* USER CODE END ADC2_MspInit 1 */
 263:Core/Src/adc.c ****   }
 264:Core/Src/adc.c **** }
 434              		.loc 1 264 1 view .LVU147
 435 0020 0AB0     		add	sp, sp, #40
 436              	.LCFI10:
 437              		.cfi_remember_state
 438              		.cfi_def_cfa_offset 8
 439              		@ sp needed
 440 0022 10BD     		pop	{r4, pc}
 441              	.LVL18:
 442              	.L33:
 443              	.LCFI11:
 444              		.cfi_restore_state
 185:Core/Src/adc.c ****     if(HAL_RCC_ADC12_CLK_ENABLED==1){
 445              		.loc 1 185 5 is_stmt 1 view .LVU148
 185:Core/Src/adc.c ****     if(HAL_RCC_ADC12_CLK_ENABLED==1){
 446              		.loc 1 185 30 is_stmt 0 view .LVU149
 447 0024 3F4A     		ldr	r2, .L39+4
 448 0026 1368     		ldr	r3, [r2]
 449 0028 0133     		adds	r3, r3, #1
 450 002a 1360     		str	r3, [r2]
 186:Core/Src/adc.c ****       __HAL_RCC_ADC12_CLK_ENABLE();
 451              		.loc 1 186 5 is_stmt 1 view .LVU150
 186:Core/Src/adc.c ****       __HAL_RCC_ADC12_CLK_ENABLE();
 452              		.loc 1 186 7 is_stmt 0 view .LVU151
 453 002c 012B     		cmp	r3, #1
 454 002e 29D0     		beq	.L35
 455              	.L27:
 187:Core/Src/adc.c ****     }
 456              		.loc 1 187 7 is_stmt 1 discriminator 1 view .LVU152
 190:Core/Src/adc.c ****     /**ADC1 GPIO Configuration
 457              		.loc 1 190 5 discriminator 1 view .LVU153
 458              	.LBB2:
 190:Core/Src/adc.c ****     /**ADC1 GPIO Configuration
 459              		.loc 1 190 5 discriminator 1 view .LVU154
 190:Core/Src/adc.c ****     /**ADC1 GPIO Configuration
 460              		.loc 1 190 5 discriminator 1 view .LVU155
 461 0030 3D4B     		ldr	r3, .L39+8
 462 0032 5A69     		ldr	r2, [r3, #20]
 463 0034 42F40032 		orr	r2, r2, #131072
 464 0038 5A61     		str	r2, [r3, #20]
 190:Core/Src/adc.c ****     /**ADC1 GPIO Configuration
 465              		.loc 1 190 5 discriminator 1 view .LVU156
ARM GAS  C:\Users\User\AppData\Local\Temp\ccfjdDwd.s 			page 14


 466 003a 5B69     		ldr	r3, [r3, #20]
 467 003c 03F40033 		and	r3, r3, #131072
 468 0040 0293     		str	r3, [sp, #8]
 190:Core/Src/adc.c ****     /**ADC1 GPIO Configuration
 469              		.loc 1 190 5 discriminator 1 view .LVU157
 470 0042 029B     		ldr	r3, [sp, #8]
 471              	.LBE2:
 190:Core/Src/adc.c ****     /**ADC1 GPIO Configuration
 472              		.loc 1 190 5 discriminator 1 view .LVU158
 195:Core/Src/adc.c ****     GPIO_InitStruct.Mode = GPIO_MODE_ANALOG;
 473              		.loc 1 195 5 discriminator 1 view .LVU159
 195:Core/Src/adc.c ****     GPIO_InitStruct.Mode = GPIO_MODE_ANALOG;
 474              		.loc 1 195 25 is_stmt 0 discriminator 1 view .LVU160
 475 0044 0323     		movs	r3, #3
 476 0046 0593     		str	r3, [sp, #20]
 196:Core/Src/adc.c ****     GPIO_InitStruct.Pull = GPIO_NOPULL;
 477              		.loc 1 196 5 is_stmt 1 discriminator 1 view .LVU161
 196:Core/Src/adc.c ****     GPIO_InitStruct.Pull = GPIO_NOPULL;
 478              		.loc 1 196 26 is_stmt 0 discriminator 1 view .LVU162
 479 0048 0693     		str	r3, [sp, #24]
 197:Core/Src/adc.c ****     HAL_GPIO_Init(GPIOA, &GPIO_InitStruct);
 480              		.loc 1 197 5 is_stmt 1 discriminator 1 view .LVU163
 198:Core/Src/adc.c **** 
 481              		.loc 1 198 5 discriminator 1 view .LVU164
 482 004a 05A9     		add	r1, sp, #20
 483 004c 4FF09040 		mov	r0, #1207959552
 484              	.LVL19:
 198:Core/Src/adc.c **** 
 485              		.loc 1 198 5 is_stmt 0 discriminator 1 view .LVU165
 486 0050 FFF7FEFF 		bl	HAL_GPIO_Init
 487              	.LVL20:
 202:Core/Src/adc.c ****     hdma_adc1.Init.Direction = DMA_PERIPH_TO_MEMORY;
 488              		.loc 1 202 5 is_stmt 1 discriminator 1 view .LVU166
 202:Core/Src/adc.c ****     hdma_adc1.Init.Direction = DMA_PERIPH_TO_MEMORY;
 489              		.loc 1 202 24 is_stmt 0 discriminator 1 view .LVU167
 490 0054 3548     		ldr	r0, .L39+12
 491 0056 364B     		ldr	r3, .L39+16
 492 0058 0360     		str	r3, [r0]
 203:Core/Src/adc.c ****     hdma_adc1.Init.PeriphInc = DMA_PINC_DISABLE;
 493              		.loc 1 203 5 is_stmt 1 discriminator 1 view .LVU168
 203:Core/Src/adc.c ****     hdma_adc1.Init.PeriphInc = DMA_PINC_DISABLE;
 494              		.loc 1 203 30 is_stmt 0 discriminator 1 view .LVU169
 495 005a 0023     		movs	r3, #0
 496 005c 4360     		str	r3, [r0, #4]
 204:Core/Src/adc.c ****     hdma_adc1.Init.MemInc = DMA_MINC_ENABLE;
 497              		.loc 1 204 5 is_stmt 1 discriminator 1 view .LVU170
 204:Core/Src/adc.c ****     hdma_adc1.Init.MemInc = DMA_MINC_ENABLE;
 498              		.loc 1 204 30 is_stmt 0 discriminator 1 view .LVU171
 499 005e 8360     		str	r3, [r0, #8]
 205:Core/Src/adc.c ****     hdma_adc1.Init.PeriphDataAlignment = DMA_PDATAALIGN_HALFWORD;
 500              		.loc 1 205 5 is_stmt 1 discriminator 1 view .LVU172
 205:Core/Src/adc.c ****     hdma_adc1.Init.PeriphDataAlignment = DMA_PDATAALIGN_HALFWORD;
 501              		.loc 1 205 27 is_stmt 0 discriminator 1 view .LVU173
 502 0060 8022     		movs	r2, #128
 503 0062 C260     		str	r2, [r0, #12]
 206:Core/Src/adc.c ****     hdma_adc1.Init.MemDataAlignment = DMA_MDATAALIGN_HALFWORD;
 504              		.loc 1 206 5 is_stmt 1 discriminator 1 view .LVU174
ARM GAS  C:\Users\User\AppData\Local\Temp\ccfjdDwd.s 			page 15


 206:Core/Src/adc.c ****     hdma_adc1.Init.MemDataAlignment = DMA_MDATAALIGN_HALFWORD;
 505              		.loc 1 206 40 is_stmt 0 discriminator 1 view .LVU175
 506 0064 4FF48072 		mov	r2, #256
 507 0068 0261     		str	r2, [r0, #16]
 207:Core/Src/adc.c ****     hdma_adc1.Init.Mode = DMA_CIRCULAR;
 508              		.loc 1 207 5 is_stmt 1 discriminator 1 view .LVU176
 207:Core/Src/adc.c ****     hdma_adc1.Init.Mode = DMA_CIRCULAR;
 509              		.loc 1 207 37 is_stmt 0 discriminator 1 view .LVU177
 510 006a 4FF48062 		mov	r2, #1024
 511 006e 4261     		str	r2, [r0, #20]
 208:Core/Src/adc.c ****     hdma_adc1.Init.Priority = DMA_PRIORITY_LOW;
 512              		.loc 1 208 5 is_stmt 1 discriminator 1 view .LVU178
 208:Core/Src/adc.c ****     hdma_adc1.Init.Priority = DMA_PRIORITY_LOW;
 513              		.loc 1 208 25 is_stmt 0 discriminator 1 view .LVU179
 514 0070 2022     		movs	r2, #32
 515 0072 8261     		str	r2, [r0, #24]
 209:Core/Src/adc.c ****     if (HAL_DMA_Init(&hdma_adc1) != HAL_OK)
 516              		.loc 1 209 5 is_stmt 1 discriminator 1 view .LVU180
 209:Core/Src/adc.c ****     if (HAL_DMA_Init(&hdma_adc1) != HAL_OK)
 517              		.loc 1 209 29 is_stmt 0 discriminator 1 view .LVU181
 518 0074 C361     		str	r3, [r0, #28]
 210:Core/Src/adc.c ****     {
 519              		.loc 1 210 5 is_stmt 1 discriminator 1 view .LVU182
 210:Core/Src/adc.c ****     {
 520              		.loc 1 210 9 is_stmt 0 discriminator 1 view .LVU183
 521 0076 FFF7FEFF 		bl	HAL_DMA_Init
 522              	.LVL21:
 210:Core/Src/adc.c ****     {
 523              		.loc 1 210 8 discriminator 1 view .LVU184
 524 007a 70B9     		cbnz	r0, .L36
 525              	.L28:
 215:Core/Src/adc.c **** 
 526              		.loc 1 215 5 is_stmt 1 view .LVU185
 215:Core/Src/adc.c **** 
 527              		.loc 1 215 5 view .LVU186
 528 007c 2B4B     		ldr	r3, .L39+12
 529 007e A363     		str	r3, [r4, #56]
 215:Core/Src/adc.c **** 
 530              		.loc 1 215 5 view .LVU187
 531 0080 5C62     		str	r4, [r3, #36]
 215:Core/Src/adc.c **** 
 532              		.loc 1 215 5 view .LVU188
 533 0082 CDE7     		b	.L25
 534              	.LVL22:
 535              	.L35:
 187:Core/Src/adc.c ****     }
 536              		.loc 1 187 7 view .LVU189
 537              	.LBB3:
 187:Core/Src/adc.c ****     }
 538              		.loc 1 187 7 view .LVU190
 187:Core/Src/adc.c ****     }
 539              		.loc 1 187 7 view .LVU191
 540 0084 284B     		ldr	r3, .L39+8
 541 0086 5A69     		ldr	r2, [r3, #20]
 542 0088 42F08052 		orr	r2, r2, #268435456
 543 008c 5A61     		str	r2, [r3, #20]
 187:Core/Src/adc.c ****     }
ARM GAS  C:\Users\User\AppData\Local\Temp\ccfjdDwd.s 			page 16


 544              		.loc 1 187 7 view .LVU192
 545 008e 5B69     		ldr	r3, [r3, #20]
 546 0090 03F08053 		and	r3, r3, #268435456
 547 0094 0193     		str	r3, [sp, #4]
 187:Core/Src/adc.c ****     }
 548              		.loc 1 187 7 view .LVU193
 549 0096 019B     		ldr	r3, [sp, #4]
 550 0098 CAE7     		b	.L27
 551              	.LVL23:
 552              	.L36:
 187:Core/Src/adc.c ****     }
 553              		.loc 1 187 7 is_stmt 0 view .LVU194
 554              	.LBE3:
 212:Core/Src/adc.c ****     }
 555              		.loc 1 212 7 is_stmt 1 view .LVU195
 556 009a FFF7FEFF 		bl	Error_Handler
 557              	.LVL24:
 558 009e EDE7     		b	.L28
 559              	.LVL25:
 560              	.L34:
 227:Core/Src/adc.c ****     if(HAL_RCC_ADC12_CLK_ENABLED==1){
 561              		.loc 1 227 5 view .LVU196
 227:Core/Src/adc.c ****     if(HAL_RCC_ADC12_CLK_ENABLED==1){
 562              		.loc 1 227 30 is_stmt 0 view .LVU197
 563 00a0 204A     		ldr	r2, .L39+4
 564 00a2 1368     		ldr	r3, [r2]
 565 00a4 0133     		adds	r3, r3, #1
 566 00a6 1360     		str	r3, [r2]
 228:Core/Src/adc.c ****       __HAL_RCC_ADC12_CLK_ENABLE();
 567              		.loc 1 228 5 is_stmt 1 view .LVU198
 228:Core/Src/adc.c ****       __HAL_RCC_ADC12_CLK_ENABLE();
 568              		.loc 1 228 7 is_stmt 0 view .LVU199
 569 00a8 012B     		cmp	r3, #1
 570 00aa 2AD0     		beq	.L37
 571              	.L30:
 229:Core/Src/adc.c ****     }
 572              		.loc 1 229 7 is_stmt 1 discriminator 1 view .LVU200
 232:Core/Src/adc.c ****     /**ADC2 GPIO Configuration
 573              		.loc 1 232 5 discriminator 1 view .LVU201
 574              	.LBB4:
 232:Core/Src/adc.c ****     /**ADC2 GPIO Configuration
 575              		.loc 1 232 5 discriminator 1 view .LVU202
 232:Core/Src/adc.c ****     /**ADC2 GPIO Configuration
 576              		.loc 1 232 5 discriminator 1 view .LVU203
 577 00ac 1E4B     		ldr	r3, .L39+8
 578 00ae 5A69     		ldr	r2, [r3, #20]
 579 00b0 42F40032 		orr	r2, r2, #131072
 580 00b4 5A61     		str	r2, [r3, #20]
 232:Core/Src/adc.c ****     /**ADC2 GPIO Configuration
 581              		.loc 1 232 5 discriminator 1 view .LVU204
 582 00b6 5B69     		ldr	r3, [r3, #20]
 583 00b8 03F40033 		and	r3, r3, #131072
 584 00bc 0493     		str	r3, [sp, #16]
 232:Core/Src/adc.c ****     /**ADC2 GPIO Configuration
 585              		.loc 1 232 5 discriminator 1 view .LVU205
 586 00be 049B     		ldr	r3, [sp, #16]
 587              	.LBE4:
ARM GAS  C:\Users\User\AppData\Local\Temp\ccfjdDwd.s 			page 17


 232:Core/Src/adc.c ****     /**ADC2 GPIO Configuration
 588              		.loc 1 232 5 discriminator 1 view .LVU206
 238:Core/Src/adc.c ****     GPIO_InitStruct.Mode = GPIO_MODE_ANALOG;
 589              		.loc 1 238 5 discriminator 1 view .LVU207
 238:Core/Src/adc.c ****     GPIO_InitStruct.Mode = GPIO_MODE_ANALOG;
 590              		.loc 1 238 25 is_stmt 0 discriminator 1 view .LVU208
 591 00c0 7023     		movs	r3, #112
 592 00c2 0593     		str	r3, [sp, #20]
 239:Core/Src/adc.c ****     GPIO_InitStruct.Pull = GPIO_NOPULL;
 593              		.loc 1 239 5 is_stmt 1 discriminator 1 view .LVU209
 239:Core/Src/adc.c ****     GPIO_InitStruct.Pull = GPIO_NOPULL;
 594              		.loc 1 239 26 is_stmt 0 discriminator 1 view .LVU210
 595 00c4 0323     		movs	r3, #3
 596 00c6 0693     		str	r3, [sp, #24]
 240:Core/Src/adc.c ****     HAL_GPIO_Init(GPIOA, &GPIO_InitStruct);
 597              		.loc 1 240 5 is_stmt 1 discriminator 1 view .LVU211
 241:Core/Src/adc.c **** 
 598              		.loc 1 241 5 discriminator 1 view .LVU212
 599 00c8 05A9     		add	r1, sp, #20
 600 00ca 4FF09040 		mov	r0, #1207959552
 601              	.LVL26:
 241:Core/Src/adc.c **** 
 602              		.loc 1 241 5 is_stmt 0 discriminator 1 view .LVU213
 603 00ce FFF7FEFF 		bl	HAL_GPIO_Init
 604              	.LVL27:
 245:Core/Src/adc.c ****     hdma_adc2.Init.Direction = DMA_PERIPH_TO_MEMORY;
 605              		.loc 1 245 5 is_stmt 1 discriminator 1 view .LVU214
 245:Core/Src/adc.c ****     hdma_adc2.Init.Direction = DMA_PERIPH_TO_MEMORY;
 606              		.loc 1 245 24 is_stmt 0 discriminator 1 view .LVU215
 607 00d2 1848     		ldr	r0, .L39+20
 608 00d4 184B     		ldr	r3, .L39+24
 609 00d6 0360     		str	r3, [r0]
 246:Core/Src/adc.c ****     hdma_adc2.Init.PeriphInc = DMA_PINC_DISABLE;
 610              		.loc 1 246 5 is_stmt 1 discriminator 1 view .LVU216
 246:Core/Src/adc.c ****     hdma_adc2.Init.PeriphInc = DMA_PINC_DISABLE;
 611              		.loc 1 246 30 is_stmt 0 discriminator 1 view .LVU217
 612 00d8 0023     		movs	r3, #0
 613 00da 4360     		str	r3, [r0, #4]
 247:Core/Src/adc.c ****     hdma_adc2.Init.MemInc = DMA_MINC_ENABLE;
 614              		.loc 1 247 5 is_stmt 1 discriminator 1 view .LVU218
 247:Core/Src/adc.c ****     hdma_adc2.Init.MemInc = DMA_MINC_ENABLE;
 615              		.loc 1 247 30 is_stmt 0 discriminator 1 view .LVU219
 616 00dc 8360     		str	r3, [r0, #8]
 248:Core/Src/adc.c ****     hdma_adc2.Init.PeriphDataAlignment = DMA_PDATAALIGN_HALFWORD;
 617              		.loc 1 248 5 is_stmt 1 discriminator 1 view .LVU220
 248:Core/Src/adc.c ****     hdma_adc2.Init.PeriphDataAlignment = DMA_PDATAALIGN_HALFWORD;
 618              		.loc 1 248 27 is_stmt 0 discriminator 1 view .LVU221
 619 00de 8022     		movs	r2, #128
 620 00e0 C260     		str	r2, [r0, #12]
 249:Core/Src/adc.c ****     hdma_adc2.Init.MemDataAlignment = DMA_MDATAALIGN_HALFWORD;
 621              		.loc 1 249 5 is_stmt 1 discriminator 1 view .LVU222
 249:Core/Src/adc.c ****     hdma_adc2.Init.MemDataAlignment = DMA_MDATAALIGN_HALFWORD;
 622              		.loc 1 249 40 is_stmt 0 discriminator 1 view .LVU223
 623 00e2 4FF48072 		mov	r2, #256
 624 00e6 0261     		str	r2, [r0, #16]
 250:Core/Src/adc.c ****     hdma_adc2.Init.Mode = DMA_CIRCULAR;
 625              		.loc 1 250 5 is_stmt 1 discriminator 1 view .LVU224
ARM GAS  C:\Users\User\AppData\Local\Temp\ccfjdDwd.s 			page 18


 250:Core/Src/adc.c ****     hdma_adc2.Init.Mode = DMA_CIRCULAR;
 626              		.loc 1 250 37 is_stmt 0 discriminator 1 view .LVU225
 627 00e8 4FF48062 		mov	r2, #1024
 628 00ec 4261     		str	r2, [r0, #20]
 251:Core/Src/adc.c ****     hdma_adc2.Init.Priority = DMA_PRIORITY_LOW;
 629              		.loc 1 251 5 is_stmt 1 discriminator 1 view .LVU226
 251:Core/Src/adc.c ****     hdma_adc2.Init.Priority = DMA_PRIORITY_LOW;
 630              		.loc 1 251 25 is_stmt 0 discriminator 1 view .LVU227
 631 00ee 2022     		movs	r2, #32
 632 00f0 8261     		str	r2, [r0, #24]
 252:Core/Src/adc.c ****     if (HAL_DMA_Init(&hdma_adc2) != HAL_OK)
 633              		.loc 1 252 5 is_stmt 1 discriminator 1 view .LVU228
 252:Core/Src/adc.c ****     if (HAL_DMA_Init(&hdma_adc2) != HAL_OK)
 634              		.loc 1 252 29 is_stmt 0 discriminator 1 view .LVU229
 635 00f2 C361     		str	r3, [r0, #28]
 253:Core/Src/adc.c ****     {
 636              		.loc 1 253 5 is_stmt 1 discriminator 1 view .LVU230
 253:Core/Src/adc.c ****     {
 637              		.loc 1 253 9 is_stmt 0 discriminator 1 view .LVU231
 638 00f4 FFF7FEFF 		bl	HAL_DMA_Init
 639              	.LVL28:
 253:Core/Src/adc.c ****     {
 640              		.loc 1 253 8 discriminator 1 view .LVU232
 641 00f8 70B9     		cbnz	r0, .L38
 642              	.L31:
 258:Core/Src/adc.c **** 
 643              		.loc 1 258 5 is_stmt 1 view .LVU233
 258:Core/Src/adc.c **** 
 644              		.loc 1 258 5 view .LVU234
 645 00fa 0E4B     		ldr	r3, .L39+20
 646 00fc A363     		str	r3, [r4, #56]
 258:Core/Src/adc.c **** 
 647              		.loc 1 258 5 view .LVU235
 648 00fe 5C62     		str	r4, [r3, #36]
 258:Core/Src/adc.c **** 
 649              		.loc 1 258 5 view .LVU236
 650              		.loc 1 264 1 is_stmt 0 view .LVU237
 651 0100 8EE7     		b	.L25
 652              	.LVL29:
 653              	.L37:
 229:Core/Src/adc.c ****     }
 654              		.loc 1 229 7 is_stmt 1 view .LVU238
 655              	.LBB5:
 229:Core/Src/adc.c ****     }
 656              		.loc 1 229 7 view .LVU239
 229:Core/Src/adc.c ****     }
 657              		.loc 1 229 7 view .LVU240
 658 0102 094B     		ldr	r3, .L39+8
 659 0104 5A69     		ldr	r2, [r3, #20]
 660 0106 42F08052 		orr	r2, r2, #268435456
 661 010a 5A61     		str	r2, [r3, #20]
 229:Core/Src/adc.c ****     }
 662              		.loc 1 229 7 view .LVU241
 663 010c 5B69     		ldr	r3, [r3, #20]
 664 010e 03F08053 		and	r3, r3, #268435456
 665 0112 0393     		str	r3, [sp, #12]
 229:Core/Src/adc.c ****     }
ARM GAS  C:\Users\User\AppData\Local\Temp\ccfjdDwd.s 			page 19


 666              		.loc 1 229 7 view .LVU242
 667 0114 039B     		ldr	r3, [sp, #12]
 668 0116 C9E7     		b	.L30
 669              	.LVL30:
 670              	.L38:
 229:Core/Src/adc.c ****     }
 671              		.loc 1 229 7 is_stmt 0 view .LVU243
 672              	.LBE5:
 255:Core/Src/adc.c ****     }
 673              		.loc 1 255 7 is_stmt 1 view .LVU244
 674 0118 FFF7FEFF 		bl	Error_Handler
 675              	.LVL31:
 676 011c EDE7     		b	.L31
 677              	.L40:
 678 011e 00BF     		.align	2
 679              	.L39:
 680 0120 00010050 		.word	1342177536
 681 0124 00000000 		.word	.LANCHOR2
 682 0128 00100240 		.word	1073876992
 683 012c 00000000 		.word	.LANCHOR3
 684 0130 08000240 		.word	1073872904
 685 0134 00000000 		.word	.LANCHOR4
 686 0138 1C000240 		.word	1073872924
 687              		.cfi_endproc
 688              	.LFE125:
 690              		.section	.text.HAL_ADC_MspDeInit,"ax",%progbits
 691              		.align	1
 692              		.global	HAL_ADC_MspDeInit
 693              		.syntax unified
 694              		.thumb
 695              		.thumb_func
 697              	HAL_ADC_MspDeInit:
 698              	.LVL32:
 699              	.LFB126:
 265:Core/Src/adc.c **** 
 266:Core/Src/adc.c **** void HAL_ADC_MspDeInit(ADC_HandleTypeDef* adcHandle)
 267:Core/Src/adc.c **** {
 700              		.loc 1 267 1 view -0
 701              		.cfi_startproc
 702              		@ args = 0, pretend = 0, frame = 0
 703              		@ frame_needed = 0, uses_anonymous_args = 0
 704              		.loc 1 267 1 is_stmt 0 view .LVU246
 705 0000 10B5     		push	{r4, lr}
 706              	.LCFI12:
 707              		.cfi_def_cfa_offset 8
 708              		.cfi_offset 4, -8
 709              		.cfi_offset 14, -4
 710 0002 0446     		mov	r4, r0
 268:Core/Src/adc.c **** 
 269:Core/Src/adc.c ****   if(adcHandle->Instance==ADC1)
 711              		.loc 1 269 3 is_stmt 1 view .LVU247
 712              		.loc 1 269 15 is_stmt 0 view .LVU248
 713 0004 0368     		ldr	r3, [r0]
 714              		.loc 1 269 5 view .LVU249
 715 0006 B3F1A04F 		cmp	r3, #1342177280
 716 000a 03D0     		beq	.L47
 270:Core/Src/adc.c ****   {
ARM GAS  C:\Users\User\AppData\Local\Temp\ccfjdDwd.s 			page 20


 271:Core/Src/adc.c ****   /* USER CODE BEGIN ADC1_MspDeInit 0 */
 272:Core/Src/adc.c **** 
 273:Core/Src/adc.c ****   /* USER CODE END ADC1_MspDeInit 0 */
 274:Core/Src/adc.c ****     /* Peripheral clock disable */
 275:Core/Src/adc.c ****     HAL_RCC_ADC12_CLK_ENABLED--;
 276:Core/Src/adc.c ****     if(HAL_RCC_ADC12_CLK_ENABLED==0){
 277:Core/Src/adc.c ****       __HAL_RCC_ADC12_CLK_DISABLE();
 278:Core/Src/adc.c ****     }
 279:Core/Src/adc.c **** 
 280:Core/Src/adc.c ****     /**ADC1 GPIO Configuration
 281:Core/Src/adc.c ****     PA0     ------> ADC1_IN1
 282:Core/Src/adc.c ****     PA1     ------> ADC1_IN2
 283:Core/Src/adc.c ****     */
 284:Core/Src/adc.c ****     HAL_GPIO_DeInit(GPIOA, GPIO_PIN_0|GPIO_PIN_1);
 285:Core/Src/adc.c **** 
 286:Core/Src/adc.c ****     /* ADC1 DMA DeInit */
 287:Core/Src/adc.c ****     HAL_DMA_DeInit(adcHandle->DMA_Handle);
 288:Core/Src/adc.c ****   /* USER CODE BEGIN ADC1_MspDeInit 1 */
 289:Core/Src/adc.c **** 
 290:Core/Src/adc.c ****   /* USER CODE END ADC1_MspDeInit 1 */
 291:Core/Src/adc.c ****   }
 292:Core/Src/adc.c ****   else if(adcHandle->Instance==ADC2)
 717              		.loc 1 292 8 is_stmt 1 view .LVU250
 718              		.loc 1 292 10 is_stmt 0 view .LVU251
 719 000c 144A     		ldr	r2, .L49
 720 000e 9342     		cmp	r3, r2
 721 0010 13D0     		beq	.L48
 722              	.LVL33:
 723              	.L41:
 293:Core/Src/adc.c ****   {
 294:Core/Src/adc.c ****   /* USER CODE BEGIN ADC2_MspDeInit 0 */
 295:Core/Src/adc.c **** 
 296:Core/Src/adc.c ****   /* USER CODE END ADC2_MspDeInit 0 */
 297:Core/Src/adc.c ****     /* Peripheral clock disable */
 298:Core/Src/adc.c ****     HAL_RCC_ADC12_CLK_ENABLED--;
 299:Core/Src/adc.c ****     if(HAL_RCC_ADC12_CLK_ENABLED==0){
 300:Core/Src/adc.c ****       __HAL_RCC_ADC12_CLK_DISABLE();
 301:Core/Src/adc.c ****     }
 302:Core/Src/adc.c **** 
 303:Core/Src/adc.c ****     /**ADC2 GPIO Configuration
 304:Core/Src/adc.c ****     PA4     ------> ADC2_IN1
 305:Core/Src/adc.c ****     PA5     ------> ADC2_IN2
 306:Core/Src/adc.c ****     PA6     ------> ADC2_IN3
 307:Core/Src/adc.c ****     */
 308:Core/Src/adc.c ****     HAL_GPIO_DeInit(GPIOA, GPIO_PIN_4|GPIO_PIN_5|GPIO_PIN_6);
 309:Core/Src/adc.c **** 
 310:Core/Src/adc.c ****     /* ADC2 DMA DeInit */
 311:Core/Src/adc.c ****     HAL_DMA_DeInit(adcHandle->DMA_Handle);
 312:Core/Src/adc.c ****   /* USER CODE BEGIN ADC2_MspDeInit 1 */
 313:Core/Src/adc.c **** 
 314:Core/Src/adc.c ****   /* USER CODE END ADC2_MspDeInit 1 */
 315:Core/Src/adc.c ****   }
 316:Core/Src/adc.c **** }
 724              		.loc 1 316 1 view .LVU252
 725 0012 10BD     		pop	{r4, pc}
 726              	.LVL34:
 727              	.L47:
ARM GAS  C:\Users\User\AppData\Local\Temp\ccfjdDwd.s 			page 21


 275:Core/Src/adc.c ****     if(HAL_RCC_ADC12_CLK_ENABLED==0){
 728              		.loc 1 275 5 is_stmt 1 view .LVU253
 275:Core/Src/adc.c ****     if(HAL_RCC_ADC12_CLK_ENABLED==0){
 729              		.loc 1 275 30 is_stmt 0 view .LVU254
 730 0014 134A     		ldr	r2, .L49+4
 731 0016 1368     		ldr	r3, [r2]
 732 0018 013B     		subs	r3, r3, #1
 733 001a 1360     		str	r3, [r2]
 276:Core/Src/adc.c ****       __HAL_RCC_ADC12_CLK_DISABLE();
 734              		.loc 1 276 5 is_stmt 1 view .LVU255
 276:Core/Src/adc.c ****       __HAL_RCC_ADC12_CLK_DISABLE();
 735              		.loc 1 276 7 is_stmt 0 view .LVU256
 736 001c 23B9     		cbnz	r3, .L43
 277:Core/Src/adc.c ****     }
 737              		.loc 1 277 7 is_stmt 1 view .LVU257
 738 001e 124A     		ldr	r2, .L49+8
 739 0020 5369     		ldr	r3, [r2, #20]
 740 0022 23F08053 		bic	r3, r3, #268435456
 741 0026 5361     		str	r3, [r2, #20]
 742              	.L43:
 284:Core/Src/adc.c **** 
 743              		.loc 1 284 5 view .LVU258
 744 0028 0321     		movs	r1, #3
 745 002a 4FF09040 		mov	r0, #1207959552
 746              	.LVL35:
 284:Core/Src/adc.c **** 
 747              		.loc 1 284 5 is_stmt 0 view .LVU259
 748 002e FFF7FEFF 		bl	HAL_GPIO_DeInit
 749              	.LVL36:
 287:Core/Src/adc.c ****   /* USER CODE BEGIN ADC1_MspDeInit 1 */
 750              		.loc 1 287 5 is_stmt 1 view .LVU260
 751 0032 A06B     		ldr	r0, [r4, #56]
 752 0034 FFF7FEFF 		bl	HAL_DMA_DeInit
 753              	.LVL37:
 754 0038 EBE7     		b	.L41
 755              	.LVL38:
 756              	.L48:
 298:Core/Src/adc.c ****     if(HAL_RCC_ADC12_CLK_ENABLED==0){
 757              		.loc 1 298 5 view .LVU261
 298:Core/Src/adc.c ****     if(HAL_RCC_ADC12_CLK_ENABLED==0){
 758              		.loc 1 298 30 is_stmt 0 view .LVU262
 759 003a 0A4A     		ldr	r2, .L49+4
 760 003c 1368     		ldr	r3, [r2]
 761 003e 013B     		subs	r3, r3, #1
 762 0040 1360     		str	r3, [r2]
 299:Core/Src/adc.c ****       __HAL_RCC_ADC12_CLK_DISABLE();
 763              		.loc 1 299 5 is_stmt 1 view .LVU263
 299:Core/Src/adc.c ****       __HAL_RCC_ADC12_CLK_DISABLE();
 764              		.loc 1 299 7 is_stmt 0 view .LVU264
 765 0042 23B9     		cbnz	r3, .L45
 300:Core/Src/adc.c ****     }
 766              		.loc 1 300 7 is_stmt 1 view .LVU265
 767 0044 084A     		ldr	r2, .L49+8
 768 0046 5369     		ldr	r3, [r2, #20]
 769 0048 23F08053 		bic	r3, r3, #268435456
 770 004c 5361     		str	r3, [r2, #20]
 771              	.L45:
ARM GAS  C:\Users\User\AppData\Local\Temp\ccfjdDwd.s 			page 22


 308:Core/Src/adc.c **** 
 772              		.loc 1 308 5 view .LVU266
 773 004e 7021     		movs	r1, #112
 774 0050 4FF09040 		mov	r0, #1207959552
 775              	.LVL39:
 308:Core/Src/adc.c **** 
 776              		.loc 1 308 5 is_stmt 0 view .LVU267
 777 0054 FFF7FEFF 		bl	HAL_GPIO_DeInit
 778              	.LVL40:
 311:Core/Src/adc.c ****   /* USER CODE BEGIN ADC2_MspDeInit 1 */
 779              		.loc 1 311 5 is_stmt 1 view .LVU268
 780 0058 A06B     		ldr	r0, [r4, #56]
 781 005a FFF7FEFF 		bl	HAL_DMA_DeInit
 782              	.LVL41:
 783              		.loc 1 316 1 is_stmt 0 view .LVU269
 784 005e D8E7     		b	.L41
 785              	.L50:
 786              		.align	2
 787              	.L49:
 788 0060 00010050 		.word	1342177536
 789 0064 00000000 		.word	.LANCHOR2
 790 0068 00100240 		.word	1073876992
 791              		.cfi_endproc
 792              	.LFE126:
 794              		.global	hdma_adc2
 795              		.global	hdma_adc1
 796              		.global	hadc2
 797              		.global	hadc1
 798              		.section	.bss.HAL_RCC_ADC12_CLK_ENABLED,"aw",%nobits
 799              		.align	2
 800              		.set	.LANCHOR2,. + 0
 803              	HAL_RCC_ADC12_CLK_ENABLED:
 804 0000 00000000 		.space	4
 805              		.section	.bss.hadc1,"aw",%nobits
 806              		.align	2
 807              		.set	.LANCHOR0,. + 0
 810              	hadc1:
 811 0000 00000000 		.space	80
 811      00000000 
 811      00000000 
 811      00000000 
 811      00000000 
 812              		.section	.bss.hadc2,"aw",%nobits
 813              		.align	2
 814              		.set	.LANCHOR1,. + 0
 817              	hadc2:
 818 0000 00000000 		.space	80
 818      00000000 
 818      00000000 
 818      00000000 
 818      00000000 
 819              		.section	.bss.hdma_adc1,"aw",%nobits
 820              		.align	2
 821              		.set	.LANCHOR3,. + 0
 824              	hdma_adc1:
 825 0000 00000000 		.space	68
 825      00000000 
ARM GAS  C:\Users\User\AppData\Local\Temp\ccfjdDwd.s 			page 23


 825      00000000 
 825      00000000 
 825      00000000 
 826              		.section	.bss.hdma_adc2,"aw",%nobits
 827              		.align	2
 828              		.set	.LANCHOR4,. + 0
 831              	hdma_adc2:
 832 0000 00000000 		.space	68
 832      00000000 
 832      00000000 
 832      00000000 
 832      00000000 
 833              		.text
 834              	.Letext0:
 835              		.file 2 "c:\\tools\\gcc-arm-none-eabi-10.3-2021.10\\arm-none-eabi\\include\\machine\\_default_type
 836              		.file 3 "c:\\tools\\gcc-arm-none-eabi-10.3-2021.10\\arm-none-eabi\\include\\sys\\_stdint.h"
 837              		.file 4 "Drivers/CMSIS/Device/ST/STM32F3xx/Include/stm32f303x8.h"
 838              		.file 5 "Drivers/CMSIS/Device/ST/STM32F3xx/Include/stm32f3xx.h"
 839              		.file 6 "Drivers/STM32F3xx_HAL_Driver/Inc/stm32f3xx_hal_def.h"
 840              		.file 7 "Drivers/STM32F3xx_HAL_Driver/Inc/stm32f3xx_hal_gpio.h"
 841              		.file 8 "Drivers/STM32F3xx_HAL_Driver/Inc/stm32f3xx_hal_dma.h"
 842              		.file 9 "Drivers/STM32F3xx_HAL_Driver/Inc/stm32f3xx_hal_adc_ex.h"
 843              		.file 10 "Drivers/STM32F3xx_HAL_Driver/Inc/stm32f3xx_hal_adc.h"
 844              		.file 11 "Core/Inc/adc.h"
 845              		.file 12 "Core/Inc/main.h"
ARM GAS  C:\Users\User\AppData\Local\Temp\ccfjdDwd.s 			page 24


DEFINED SYMBOLS
                            *ABS*:00000000 adc.c
C:\Users\User\AppData\Local\Temp\ccfjdDwd.s:20     .text.MX_ADC1_Init:00000000 $t
C:\Users\User\AppData\Local\Temp\ccfjdDwd.s:26     .text.MX_ADC1_Init:00000000 MX_ADC1_Init
C:\Users\User\AppData\Local\Temp\ccfjdDwd.s:201    .text.MX_ADC1_Init:000000a8 $d
C:\Users\User\AppData\Local\Temp\ccfjdDwd.s:206    .text.MX_ADC2_Init:00000000 $t
C:\Users\User\AppData\Local\Temp\ccfjdDwd.s:212    .text.MX_ADC2_Init:00000000 MX_ADC2_Init
C:\Users\User\AppData\Local\Temp\ccfjdDwd.s:384    .text.MX_ADC2_Init:000000a0 $d
C:\Users\User\AppData\Local\Temp\ccfjdDwd.s:390    .text.HAL_ADC_MspInit:00000000 $t
C:\Users\User\AppData\Local\Temp\ccfjdDwd.s:396    .text.HAL_ADC_MspInit:00000000 HAL_ADC_MspInit
C:\Users\User\AppData\Local\Temp\ccfjdDwd.s:680    .text.HAL_ADC_MspInit:00000120 $d
C:\Users\User\AppData\Local\Temp\ccfjdDwd.s:691    .text.HAL_ADC_MspDeInit:00000000 $t
C:\Users\User\AppData\Local\Temp\ccfjdDwd.s:697    .text.HAL_ADC_MspDeInit:00000000 HAL_ADC_MspDeInit
C:\Users\User\AppData\Local\Temp\ccfjdDwd.s:788    .text.HAL_ADC_MspDeInit:00000060 $d
C:\Users\User\AppData\Local\Temp\ccfjdDwd.s:831    .bss.hdma_adc2:00000000 hdma_adc2
C:\Users\User\AppData\Local\Temp\ccfjdDwd.s:824    .bss.hdma_adc1:00000000 hdma_adc1
C:\Users\User\AppData\Local\Temp\ccfjdDwd.s:817    .bss.hadc2:00000000 hadc2
C:\Users\User\AppData\Local\Temp\ccfjdDwd.s:810    .bss.hadc1:00000000 hadc1
C:\Users\User\AppData\Local\Temp\ccfjdDwd.s:799    .bss.HAL_RCC_ADC12_CLK_ENABLED:00000000 $d
C:\Users\User\AppData\Local\Temp\ccfjdDwd.s:803    .bss.HAL_RCC_ADC12_CLK_ENABLED:00000000 HAL_RCC_ADC12_CLK_ENABLED
C:\Users\User\AppData\Local\Temp\ccfjdDwd.s:806    .bss.hadc1:00000000 $d
C:\Users\User\AppData\Local\Temp\ccfjdDwd.s:813    .bss.hadc2:00000000 $d
C:\Users\User\AppData\Local\Temp\ccfjdDwd.s:820    .bss.hdma_adc1:00000000 $d
C:\Users\User\AppData\Local\Temp\ccfjdDwd.s:827    .bss.hdma_adc2:00000000 $d

UNDEFINED SYMBOLS
HAL_ADC_Init
HAL_ADCEx_MultiModeConfigChannel
HAL_ADC_ConfigChannel
Error_Handler
HAL_GPIO_Init
HAL_DMA_Init
HAL_GPIO_DeInit
HAL_DMA_DeInit
