ARM GAS  C:\Users\User\AppData\Local\Temp\cc0Y6K8j.s 			page 1


   1              		.cpu cortex-m4
   2              		.arch armv7e-m
   3              		.fpu fpv4-sp-d16
   4              		.eabi_attribute 27, 1
   5              		.eabi_attribute 28, 1
   6              		.eabi_attribute 20, 1
   7              		.eabi_attribute 21, 1
   8              		.eabi_attribute 23, 3
   9              		.eabi_attribute 24, 1
  10              		.eabi_attribute 25, 1
  11              		.eabi_attribute 26, 1
  12              		.eabi_attribute 30, 1
  13              		.eabi_attribute 34, 1
  14              		.eabi_attribute 18, 4
  15              		.file	"adc.c"
  16              		.text
  17              	.Ltext0:
  18              		.cfi_sections	.debug_frame
  19              		.section	.text.MX_ADC1_Init,"ax",%progbits
  20              		.align	1
  21              		.global	MX_ADC1_Init
  22              		.syntax unified
  23              		.thumb
  24              		.thumb_func
  26              	MX_ADC1_Init:
  27              	.LFB123:
  28              		.file 1 "Core/Src/adc.c"
   1:Core/Src/adc.c **** /* USER CODE BEGIN Header */
   2:Core/Src/adc.c **** /**
   3:Core/Src/adc.c ****   ******************************************************************************
   4:Core/Src/adc.c ****   * @file    adc.c
   5:Core/Src/adc.c ****   * @brief   This file provides code for the configuration
   6:Core/Src/adc.c ****   *          of the ADC instances.
   7:Core/Src/adc.c ****   ******************************************************************************
   8:Core/Src/adc.c ****   * @attention
   9:Core/Src/adc.c ****   *
  10:Core/Src/adc.c ****   * Copyright (c) 2023 STMicroelectronics.
  11:Core/Src/adc.c ****   * All rights reserved.
  12:Core/Src/adc.c ****   *
  13:Core/Src/adc.c ****   * This software is licensed under terms that can be found in the LICENSE file
  14:Core/Src/adc.c ****   * in the root directory of this software component.
  15:Core/Src/adc.c ****   * If no LICENSE file comes with this software, it is provided AS-IS.
  16:Core/Src/adc.c ****   *
  17:Core/Src/adc.c ****   ******************************************************************************
  18:Core/Src/adc.c ****   */
  19:Core/Src/adc.c **** /* USER CODE END Header */
  20:Core/Src/adc.c **** /* Includes ------------------------------------------------------------------*/
  21:Core/Src/adc.c **** #include "adc.h"
  22:Core/Src/adc.c **** 
  23:Core/Src/adc.c **** /* USER CODE BEGIN 0 */
  24:Core/Src/adc.c **** 
  25:Core/Src/adc.c **** /* USER CODE END 0 */
  26:Core/Src/adc.c **** 
  27:Core/Src/adc.c **** ADC_HandleTypeDef hadc1;
  28:Core/Src/adc.c **** ADC_HandleTypeDef hadc2;
  29:Core/Src/adc.c **** DMA_HandleTypeDef hdma_adc1;
  30:Core/Src/adc.c **** DMA_HandleTypeDef hdma_adc2;
ARM GAS  C:\Users\User\AppData\Local\Temp\cc0Y6K8j.s 			page 2


  31:Core/Src/adc.c **** 
  32:Core/Src/adc.c **** /* ADC1 init function */
  33:Core/Src/adc.c **** void MX_ADC1_Init(void)
  34:Core/Src/adc.c **** {
  29              		.loc 1 34 1 view -0
  30              		.cfi_startproc
  31              		@ args = 0, pretend = 0, frame = 40
  32              		@ frame_needed = 0, uses_anonymous_args = 0
  33 0000 00B5     		push	{lr}
  34              	.LCFI0:
  35              		.cfi_def_cfa_offset 4
  36              		.cfi_offset 14, -4
  37 0002 8BB0     		sub	sp, sp, #44
  38              	.LCFI1:
  39              		.cfi_def_cfa_offset 48
  35:Core/Src/adc.c **** 
  36:Core/Src/adc.c ****   /* USER CODE BEGIN ADC1_Init 0 */
  37:Core/Src/adc.c **** 
  38:Core/Src/adc.c ****   /* USER CODE END ADC1_Init 0 */
  39:Core/Src/adc.c **** 
  40:Core/Src/adc.c ****   ADC_MultiModeTypeDef multimode = {0};
  40              		.loc 1 40 3 view .LVU1
  41              		.loc 1 40 24 is_stmt 0 view .LVU2
  42 0004 0023     		movs	r3, #0
  43 0006 0793     		str	r3, [sp, #28]
  44 0008 0893     		str	r3, [sp, #32]
  45 000a 0993     		str	r3, [sp, #36]
  41:Core/Src/adc.c ****   ADC_ChannelConfTypeDef sConfig = {0};
  46              		.loc 1 41 3 is_stmt 1 view .LVU3
  47              		.loc 1 41 26 is_stmt 0 view .LVU4
  48 000c 0193     		str	r3, [sp, #4]
  49 000e 0293     		str	r3, [sp, #8]
  50 0010 0393     		str	r3, [sp, #12]
  51 0012 0493     		str	r3, [sp, #16]
  52 0014 0593     		str	r3, [sp, #20]
  53 0016 0693     		str	r3, [sp, #24]
  42:Core/Src/adc.c **** 
  43:Core/Src/adc.c ****   /* USER CODE BEGIN ADC1_Init 1 */
  44:Core/Src/adc.c **** 
  45:Core/Src/adc.c ****   /* USER CODE END ADC1_Init 1 */
  46:Core/Src/adc.c **** 
  47:Core/Src/adc.c ****   /** Common config
  48:Core/Src/adc.c ****   */
  49:Core/Src/adc.c ****   hadc1.Instance = ADC1;
  54              		.loc 1 49 3 is_stmt 1 view .LVU5
  55              		.loc 1 49 18 is_stmt 0 view .LVU6
  56 0018 2348     		ldr	r0, .L11
  57 001a 4FF0A042 		mov	r2, #1342177280
  58 001e 0260     		str	r2, [r0]
  50:Core/Src/adc.c ****   hadc1.Init.ClockPrescaler = ADC_CLOCK_SYNC_PCLK_DIV4;
  59              		.loc 1 50 3 is_stmt 1 view .LVU7
  60              		.loc 1 50 29 is_stmt 0 view .LVU8
  61 0020 4FF44032 		mov	r2, #196608
  62 0024 4260     		str	r2, [r0, #4]
  51:Core/Src/adc.c ****   hadc1.Init.Resolution = ADC_RESOLUTION_12B;
  63              		.loc 1 51 3 is_stmt 1 view .LVU9
  64              		.loc 1 51 25 is_stmt 0 view .LVU10
ARM GAS  C:\Users\User\AppData\Local\Temp\cc0Y6K8j.s 			page 3


  65 0026 8360     		str	r3, [r0, #8]
  52:Core/Src/adc.c ****   hadc1.Init.ScanConvMode = ADC_SCAN_ENABLE;
  66              		.loc 1 52 3 is_stmt 1 view .LVU11
  67              		.loc 1 52 27 is_stmt 0 view .LVU12
  68 0028 0122     		movs	r2, #1
  69 002a 0261     		str	r2, [r0, #16]
  53:Core/Src/adc.c ****   hadc1.Init.ContinuousConvMode = ENABLE;
  70              		.loc 1 53 3 is_stmt 1 view .LVU13
  71              		.loc 1 53 33 is_stmt 0 view .LVU14
  72 002c 4276     		strb	r2, [r0, #25]
  54:Core/Src/adc.c ****   hadc1.Init.DiscontinuousConvMode = DISABLE;
  73              		.loc 1 54 3 is_stmt 1 view .LVU15
  74              		.loc 1 54 36 is_stmt 0 view .LVU16
  75 002e 80F82030 		strb	r3, [r0, #32]
  55:Core/Src/adc.c ****   hadc1.Init.ExternalTrigConvEdge = ADC_EXTERNALTRIGCONVEDGE_NONE;
  76              		.loc 1 55 3 is_stmt 1 view .LVU17
  77              		.loc 1 55 35 is_stmt 0 view .LVU18
  78 0032 C362     		str	r3, [r0, #44]
  56:Core/Src/adc.c ****   hadc1.Init.ExternalTrigConv = ADC_SOFTWARE_START;
  79              		.loc 1 56 3 is_stmt 1 view .LVU19
  80              		.loc 1 56 31 is_stmt 0 view .LVU20
  81 0034 8262     		str	r2, [r0, #40]
  57:Core/Src/adc.c ****   hadc1.Init.DataAlign = ADC_DATAALIGN_RIGHT;
  82              		.loc 1 57 3 is_stmt 1 view .LVU21
  83              		.loc 1 57 24 is_stmt 0 view .LVU22
  84 0036 C360     		str	r3, [r0, #12]
  58:Core/Src/adc.c ****   hadc1.Init.NbrOfConversion = 2;
  85              		.loc 1 58 3 is_stmt 1 view .LVU23
  86              		.loc 1 58 30 is_stmt 0 view .LVU24
  87 0038 0221     		movs	r1, #2
  88 003a C161     		str	r1, [r0, #28]
  59:Core/Src/adc.c ****   hadc1.Init.DMAContinuousRequests = ENABLE;
  89              		.loc 1 59 3 is_stmt 1 view .LVU25
  90              		.loc 1 59 36 is_stmt 0 view .LVU26
  91 003c 80F83020 		strb	r2, [r0, #48]
  60:Core/Src/adc.c ****   hadc1.Init.EOCSelection = ADC_EOC_SINGLE_CONV;
  92              		.loc 1 60 3 is_stmt 1 view .LVU27
  93              		.loc 1 60 27 is_stmt 0 view .LVU28
  94 0040 0422     		movs	r2, #4
  95 0042 4261     		str	r2, [r0, #20]
  61:Core/Src/adc.c ****   hadc1.Init.LowPowerAutoWait = DISABLE;
  96              		.loc 1 61 3 is_stmt 1 view .LVU29
  97              		.loc 1 61 31 is_stmt 0 view .LVU30
  98 0044 0376     		strb	r3, [r0, #24]
  62:Core/Src/adc.c ****   hadc1.Init.Overrun = ADC_OVR_DATA_OVERWRITTEN;
  99              		.loc 1 62 3 is_stmt 1 view .LVU31
 100              		.loc 1 62 22 is_stmt 0 view .LVU32
 101 0046 4363     		str	r3, [r0, #52]
  63:Core/Src/adc.c ****   if (HAL_ADC_Init(&hadc1) != HAL_OK)
 102              		.loc 1 63 3 is_stmt 1 view .LVU33
 103              		.loc 1 63 7 is_stmt 0 view .LVU34
 104 0048 FFF7FEFF 		bl	HAL_ADC_Init
 105              	.LVL0:
 106              		.loc 1 63 6 view .LVU35
 107 004c 00BB     		cbnz	r0, .L7
 108              	.L2:
  64:Core/Src/adc.c ****   {
ARM GAS  C:\Users\User\AppData\Local\Temp\cc0Y6K8j.s 			page 4


  65:Core/Src/adc.c ****     Error_Handler();
  66:Core/Src/adc.c ****   }
  67:Core/Src/adc.c **** 
  68:Core/Src/adc.c ****   /** Configure the ADC multi-mode
  69:Core/Src/adc.c ****   */
  70:Core/Src/adc.c ****   multimode.Mode = ADC_MODE_INDEPENDENT;
 109              		.loc 1 70 3 is_stmt 1 view .LVU36
 110              		.loc 1 70 18 is_stmt 0 view .LVU37
 111 004e 0023     		movs	r3, #0
 112 0050 0793     		str	r3, [sp, #28]
  71:Core/Src/adc.c ****   if (HAL_ADCEx_MultiModeConfigChannel(&hadc1, &multimode) != HAL_OK)
 113              		.loc 1 71 3 is_stmt 1 view .LVU38
 114              		.loc 1 71 7 is_stmt 0 view .LVU39
 115 0052 07A9     		add	r1, sp, #28
 116 0054 1448     		ldr	r0, .L11
 117 0056 FFF7FEFF 		bl	HAL_ADCEx_MultiModeConfigChannel
 118              	.LVL1:
 119              		.loc 1 71 6 view .LVU40
 120 005a E0B9     		cbnz	r0, .L8
 121              	.L3:
  72:Core/Src/adc.c ****   {
  73:Core/Src/adc.c ****     Error_Handler();
  74:Core/Src/adc.c ****   }
  75:Core/Src/adc.c **** 
  76:Core/Src/adc.c ****   /** Configure Regular Channel
  77:Core/Src/adc.c ****   */
  78:Core/Src/adc.c ****   sConfig.Channel = ADC_CHANNEL_1;
 122              		.loc 1 78 3 is_stmt 1 view .LVU41
 123              		.loc 1 78 19 is_stmt 0 view .LVU42
 124 005c 0123     		movs	r3, #1
 125 005e 0193     		str	r3, [sp, #4]
  79:Core/Src/adc.c ****   sConfig.Rank = ADC_REGULAR_RANK_1;
 126              		.loc 1 79 3 is_stmt 1 view .LVU43
 127              		.loc 1 79 16 is_stmt 0 view .LVU44
 128 0060 0293     		str	r3, [sp, #8]
  80:Core/Src/adc.c ****   sConfig.SingleDiff = ADC_SINGLE_ENDED;
 129              		.loc 1 80 3 is_stmt 1 view .LVU45
 130              		.loc 1 80 22 is_stmt 0 view .LVU46
 131 0062 0023     		movs	r3, #0
 132 0064 0493     		str	r3, [sp, #16]
  81:Core/Src/adc.c ****   sConfig.SamplingTime = ADC_SAMPLETIME_19CYCLES_5;
 133              		.loc 1 81 3 is_stmt 1 view .LVU47
 134              		.loc 1 81 24 is_stmt 0 view .LVU48
 135 0066 0422     		movs	r2, #4
 136 0068 0392     		str	r2, [sp, #12]
  82:Core/Src/adc.c ****   sConfig.OffsetNumber = ADC_OFFSET_NONE;
 137              		.loc 1 82 3 is_stmt 1 view .LVU49
 138              		.loc 1 82 24 is_stmt 0 view .LVU50
 139 006a 0593     		str	r3, [sp, #20]
  83:Core/Src/adc.c ****   sConfig.Offset = 0;
 140              		.loc 1 83 3 is_stmt 1 view .LVU51
 141              		.loc 1 83 18 is_stmt 0 view .LVU52
 142 006c 0693     		str	r3, [sp, #24]
  84:Core/Src/adc.c ****   if (HAL_ADC_ConfigChannel(&hadc1, &sConfig) != HAL_OK)
 143              		.loc 1 84 3 is_stmt 1 view .LVU53
 144              		.loc 1 84 7 is_stmt 0 view .LVU54
 145 006e 0DEB0201 		add	r1, sp, r2
ARM GAS  C:\Users\User\AppData\Local\Temp\cc0Y6K8j.s 			page 5


 146 0072 0D48     		ldr	r0, .L11
 147 0074 FFF7FEFF 		bl	HAL_ADC_ConfigChannel
 148              	.LVL2:
 149              		.loc 1 84 6 view .LVU55
 150 0078 80B9     		cbnz	r0, .L9
 151              	.L4:
  85:Core/Src/adc.c ****   {
  86:Core/Src/adc.c ****     Error_Handler();
  87:Core/Src/adc.c ****   }
  88:Core/Src/adc.c **** 
  89:Core/Src/adc.c ****   /** Configure Regular Channel
  90:Core/Src/adc.c ****   */
  91:Core/Src/adc.c ****   sConfig.Channel = ADC_CHANNEL_2;
 152              		.loc 1 91 3 is_stmt 1 view .LVU56
 153              		.loc 1 91 19 is_stmt 0 view .LVU57
 154 007a 0223     		movs	r3, #2
 155 007c 0193     		str	r3, [sp, #4]
  92:Core/Src/adc.c ****   sConfig.Rank = ADC_REGULAR_RANK_2;
 156              		.loc 1 92 3 is_stmt 1 view .LVU58
 157              		.loc 1 92 16 is_stmt 0 view .LVU59
 158 007e 0293     		str	r3, [sp, #8]
  93:Core/Src/adc.c ****   if (HAL_ADC_ConfigChannel(&hadc1, &sConfig) != HAL_OK)
 159              		.loc 1 93 3 is_stmt 1 view .LVU60
 160              		.loc 1 93 7 is_stmt 0 view .LVU61
 161 0080 01A9     		add	r1, sp, #4
 162 0082 0948     		ldr	r0, .L11
 163 0084 FFF7FEFF 		bl	HAL_ADC_ConfigChannel
 164              	.LVL3:
 165              		.loc 1 93 6 view .LVU62
 166 0088 58B9     		cbnz	r0, .L10
 167              	.L1:
  94:Core/Src/adc.c ****   {
  95:Core/Src/adc.c ****     Error_Handler();
  96:Core/Src/adc.c ****   }
  97:Core/Src/adc.c ****   /* USER CODE BEGIN ADC1_Init 2 */
  98:Core/Src/adc.c **** 
  99:Core/Src/adc.c ****   /* USER CODE END ADC1_Init 2 */
 100:Core/Src/adc.c **** 
 101:Core/Src/adc.c **** }
 168              		.loc 1 101 1 view .LVU63
 169 008a 0BB0     		add	sp, sp, #44
 170              	.LCFI2:
 171              		.cfi_remember_state
 172              		.cfi_def_cfa_offset 4
 173              		@ sp needed
 174 008c 5DF804FB 		ldr	pc, [sp], #4
 175              	.L7:
 176              	.LCFI3:
 177              		.cfi_restore_state
  65:Core/Src/adc.c ****   }
 178              		.loc 1 65 5 is_stmt 1 view .LVU64
 179 0090 FFF7FEFF 		bl	Error_Handler
 180              	.LVL4:
 181 0094 DBE7     		b	.L2
 182              	.L8:
  73:Core/Src/adc.c ****   }
 183              		.loc 1 73 5 view .LVU65
ARM GAS  C:\Users\User\AppData\Local\Temp\cc0Y6K8j.s 			page 6


 184 0096 FFF7FEFF 		bl	Error_Handler
 185              	.LVL5:
 186 009a DFE7     		b	.L3
 187              	.L9:
  86:Core/Src/adc.c ****   }
 188              		.loc 1 86 5 view .LVU66
 189 009c FFF7FEFF 		bl	Error_Handler
 190              	.LVL6:
 191 00a0 EBE7     		b	.L4
 192              	.L10:
  95:Core/Src/adc.c ****   }
 193              		.loc 1 95 5 view .LVU67
 194 00a2 FFF7FEFF 		bl	Error_Handler
 195              	.LVL7:
 196              		.loc 1 101 1 is_stmt 0 view .LVU68
 197 00a6 F0E7     		b	.L1
 198              	.L12:
 199              		.align	2
 200              	.L11:
 201 00a8 00000000 		.word	.LANCHOR0
 202              		.cfi_endproc
 203              	.LFE123:
 205              		.section	.text.MX_ADC2_Init,"ax",%progbits
 206              		.align	1
 207              		.global	MX_ADC2_Init
 208              		.syntax unified
 209              		.thumb
 210              		.thumb_func
 212              	MX_ADC2_Init:
 213              	.LFB124:
 102:Core/Src/adc.c **** /* ADC2 init function */
 103:Core/Src/adc.c **** void MX_ADC2_Init(void)
 104:Core/Src/adc.c **** {
 214              		.loc 1 104 1 is_stmt 1 view -0
 215              		.cfi_startproc
 216              		@ args = 0, pretend = 0, frame = 24
 217              		@ frame_needed = 0, uses_anonymous_args = 0
 218 0000 00B5     		push	{lr}
 219              	.LCFI4:
 220              		.cfi_def_cfa_offset 4
 221              		.cfi_offset 14, -4
 222 0002 87B0     		sub	sp, sp, #28
 223              	.LCFI5:
 224              		.cfi_def_cfa_offset 32
 105:Core/Src/adc.c **** 
 106:Core/Src/adc.c ****   /* USER CODE BEGIN ADC2_Init 0 */
 107:Core/Src/adc.c **** 
 108:Core/Src/adc.c ****   /* USER CODE END ADC2_Init 0 */
 109:Core/Src/adc.c **** 
 110:Core/Src/adc.c ****   ADC_ChannelConfTypeDef sConfig = {0};
 225              		.loc 1 110 3 view .LVU70
 226              		.loc 1 110 26 is_stmt 0 view .LVU71
 227 0004 0023     		movs	r3, #0
 228 0006 0093     		str	r3, [sp]
 229 0008 0193     		str	r3, [sp, #4]
 230 000a 0293     		str	r3, [sp, #8]
 231 000c 0393     		str	r3, [sp, #12]
ARM GAS  C:\Users\User\AppData\Local\Temp\cc0Y6K8j.s 			page 7


 232 000e 0493     		str	r3, [sp, #16]
 233 0010 0593     		str	r3, [sp, #20]
 111:Core/Src/adc.c **** 
 112:Core/Src/adc.c ****   /* USER CODE BEGIN ADC2_Init 1 */
 113:Core/Src/adc.c **** 
 114:Core/Src/adc.c ****   /* USER CODE END ADC2_Init 1 */
 115:Core/Src/adc.c **** 
 116:Core/Src/adc.c ****   /** Common config
 117:Core/Src/adc.c ****   */
 118:Core/Src/adc.c ****   hadc2.Instance = ADC2;
 234              		.loc 1 118 3 is_stmt 1 view .LVU72
 235              		.loc 1 118 18 is_stmt 0 view .LVU73
 236 0012 1D48     		ldr	r0, .L21
 237 0014 1D4A     		ldr	r2, .L21+4
 238 0016 0260     		str	r2, [r0]
 119:Core/Src/adc.c ****   hadc2.Init.ClockPrescaler = ADC_CLOCK_SYNC_PCLK_DIV4;
 239              		.loc 1 119 3 is_stmt 1 view .LVU74
 240              		.loc 1 119 29 is_stmt 0 view .LVU75
 241 0018 4FF44032 		mov	r2, #196608
 242 001c 4260     		str	r2, [r0, #4]
 120:Core/Src/adc.c ****   hadc2.Init.Resolution = ADC_RESOLUTION_12B;
 243              		.loc 1 120 3 is_stmt 1 view .LVU76
 244              		.loc 1 120 25 is_stmt 0 view .LVU77
 245 001e 8360     		str	r3, [r0, #8]
 121:Core/Src/adc.c ****   hadc2.Init.ScanConvMode = ADC_SCAN_ENABLE;
 246              		.loc 1 121 3 is_stmt 1 view .LVU78
 247              		.loc 1 121 27 is_stmt 0 view .LVU79
 248 0020 0122     		movs	r2, #1
 249 0022 0261     		str	r2, [r0, #16]
 122:Core/Src/adc.c ****   hadc2.Init.ContinuousConvMode = ENABLE;
 250              		.loc 1 122 3 is_stmt 1 view .LVU80
 251              		.loc 1 122 33 is_stmt 0 view .LVU81
 252 0024 4276     		strb	r2, [r0, #25]
 123:Core/Src/adc.c ****   hadc2.Init.DiscontinuousConvMode = DISABLE;
 253              		.loc 1 123 3 is_stmt 1 view .LVU82
 254              		.loc 1 123 36 is_stmt 0 view .LVU83
 255 0026 80F82030 		strb	r3, [r0, #32]
 124:Core/Src/adc.c ****   hadc2.Init.ExternalTrigConvEdge = ADC_EXTERNALTRIGCONVEDGE_NONE;
 256              		.loc 1 124 3 is_stmt 1 view .LVU84
 257              		.loc 1 124 35 is_stmt 0 view .LVU85
 258 002a C362     		str	r3, [r0, #44]
 125:Core/Src/adc.c ****   hadc2.Init.ExternalTrigConv = ADC_SOFTWARE_START;
 259              		.loc 1 125 3 is_stmt 1 view .LVU86
 260              		.loc 1 125 31 is_stmt 0 view .LVU87
 261 002c 8262     		str	r2, [r0, #40]
 126:Core/Src/adc.c ****   hadc2.Init.DataAlign = ADC_DATAALIGN_RIGHT;
 262              		.loc 1 126 3 is_stmt 1 view .LVU88
 263              		.loc 1 126 24 is_stmt 0 view .LVU89
 264 002e C360     		str	r3, [r0, #12]
 127:Core/Src/adc.c ****   hadc2.Init.NbrOfConversion = 2;
 265              		.loc 1 127 3 is_stmt 1 view .LVU90
 266              		.loc 1 127 30 is_stmt 0 view .LVU91
 267 0030 0221     		movs	r1, #2
 268 0032 C161     		str	r1, [r0, #28]
 128:Core/Src/adc.c ****   hadc2.Init.DMAContinuousRequests = ENABLE;
 269              		.loc 1 128 3 is_stmt 1 view .LVU92
 270              		.loc 1 128 36 is_stmt 0 view .LVU93
ARM GAS  C:\Users\User\AppData\Local\Temp\cc0Y6K8j.s 			page 8


 271 0034 80F83020 		strb	r2, [r0, #48]
 129:Core/Src/adc.c ****   hadc2.Init.EOCSelection = ADC_EOC_SINGLE_CONV;
 272              		.loc 1 129 3 is_stmt 1 view .LVU94
 273              		.loc 1 129 27 is_stmt 0 view .LVU95
 274 0038 0422     		movs	r2, #4
 275 003a 4261     		str	r2, [r0, #20]
 130:Core/Src/adc.c ****   hadc2.Init.LowPowerAutoWait = DISABLE;
 276              		.loc 1 130 3 is_stmt 1 view .LVU96
 277              		.loc 1 130 31 is_stmt 0 view .LVU97
 278 003c 0376     		strb	r3, [r0, #24]
 131:Core/Src/adc.c ****   hadc2.Init.Overrun = ADC_OVR_DATA_OVERWRITTEN;
 279              		.loc 1 131 3 is_stmt 1 view .LVU98
 280              		.loc 1 131 22 is_stmt 0 view .LVU99
 281 003e 4363     		str	r3, [r0, #52]
 132:Core/Src/adc.c ****   if (HAL_ADC_Init(&hadc2) != HAL_OK)
 282              		.loc 1 132 3 is_stmt 1 view .LVU100
 283              		.loc 1 132 7 is_stmt 0 view .LVU101
 284 0040 FFF7FEFF 		bl	HAL_ADC_Init
 285              	.LVL8:
 286              		.loc 1 132 6 view .LVU102
 287 0044 B8B9     		cbnz	r0, .L18
 288              	.L14:
 133:Core/Src/adc.c ****   {
 134:Core/Src/adc.c ****     Error_Handler();
 135:Core/Src/adc.c ****   }
 136:Core/Src/adc.c **** 
 137:Core/Src/adc.c ****   /** Configure Regular Channel
 138:Core/Src/adc.c ****   */
 139:Core/Src/adc.c ****   sConfig.Channel = ADC_CHANNEL_1;
 289              		.loc 1 139 3 is_stmt 1 view .LVU103
 290              		.loc 1 139 19 is_stmt 0 view .LVU104
 291 0046 0123     		movs	r3, #1
 292 0048 0093     		str	r3, [sp]
 140:Core/Src/adc.c ****   sConfig.Rank = ADC_REGULAR_RANK_1;
 293              		.loc 1 140 3 is_stmt 1 view .LVU105
 294              		.loc 1 140 16 is_stmt 0 view .LVU106
 295 004a 0193     		str	r3, [sp, #4]
 141:Core/Src/adc.c ****   sConfig.SingleDiff = ADC_SINGLE_ENDED;
 296              		.loc 1 141 3 is_stmt 1 view .LVU107
 297              		.loc 1 141 22 is_stmt 0 view .LVU108
 298 004c 0023     		movs	r3, #0
 299 004e 0393     		str	r3, [sp, #12]
 142:Core/Src/adc.c ****   sConfig.SamplingTime = ADC_SAMPLETIME_19CYCLES_5;
 300              		.loc 1 142 3 is_stmt 1 view .LVU109
 301              		.loc 1 142 24 is_stmt 0 view .LVU110
 302 0050 0422     		movs	r2, #4
 303 0052 0292     		str	r2, [sp, #8]
 143:Core/Src/adc.c ****   sConfig.OffsetNumber = ADC_OFFSET_NONE;
 304              		.loc 1 143 3 is_stmt 1 view .LVU111
 305              		.loc 1 143 24 is_stmt 0 view .LVU112
 306 0054 0493     		str	r3, [sp, #16]
 144:Core/Src/adc.c ****   sConfig.Offset = 0;
 307              		.loc 1 144 3 is_stmt 1 view .LVU113
 308              		.loc 1 144 18 is_stmt 0 view .LVU114
 309 0056 0593     		str	r3, [sp, #20]
 145:Core/Src/adc.c ****   if (HAL_ADC_ConfigChannel(&hadc2, &sConfig) != HAL_OK)
 310              		.loc 1 145 3 is_stmt 1 view .LVU115
ARM GAS  C:\Users\User\AppData\Local\Temp\cc0Y6K8j.s 			page 9


 311              		.loc 1 145 7 is_stmt 0 view .LVU116
 312 0058 6946     		mov	r1, sp
 313 005a 0B48     		ldr	r0, .L21
 314 005c FFF7FEFF 		bl	HAL_ADC_ConfigChannel
 315              	.LVL9:
 316              		.loc 1 145 6 view .LVU117
 317 0060 60B9     		cbnz	r0, .L19
 318              	.L15:
 146:Core/Src/adc.c ****   {
 147:Core/Src/adc.c ****     Error_Handler();
 148:Core/Src/adc.c ****   }
 149:Core/Src/adc.c **** 
 150:Core/Src/adc.c ****   /** Configure Regular Channel
 151:Core/Src/adc.c ****   */
 152:Core/Src/adc.c ****   sConfig.Rank = ADC_REGULAR_RANK_2;
 319              		.loc 1 152 3 is_stmt 1 view .LVU118
 320              		.loc 1 152 16 is_stmt 0 view .LVU119
 321 0062 0223     		movs	r3, #2
 322 0064 0193     		str	r3, [sp, #4]
 153:Core/Src/adc.c ****   if (HAL_ADC_ConfigChannel(&hadc2, &sConfig) != HAL_OK)
 323              		.loc 1 153 3 is_stmt 1 view .LVU120
 324              		.loc 1 153 7 is_stmt 0 view .LVU121
 325 0066 6946     		mov	r1, sp
 326 0068 0748     		ldr	r0, .L21
 327 006a FFF7FEFF 		bl	HAL_ADC_ConfigChannel
 328              	.LVL10:
 329              		.loc 1 153 6 view .LVU122
 330 006e 40B9     		cbnz	r0, .L20
 331              	.L13:
 154:Core/Src/adc.c ****   {
 155:Core/Src/adc.c ****     Error_Handler();
 156:Core/Src/adc.c ****   }
 157:Core/Src/adc.c ****   /* USER CODE BEGIN ADC2_Init 2 */
 158:Core/Src/adc.c **** 
 159:Core/Src/adc.c ****   /* USER CODE END ADC2_Init 2 */
 160:Core/Src/adc.c **** 
 161:Core/Src/adc.c **** }
 332              		.loc 1 161 1 view .LVU123
 333 0070 07B0     		add	sp, sp, #28
 334              	.LCFI6:
 335              		.cfi_remember_state
 336              		.cfi_def_cfa_offset 4
 337              		@ sp needed
 338 0072 5DF804FB 		ldr	pc, [sp], #4
 339              	.L18:
 340              	.LCFI7:
 341              		.cfi_restore_state
 134:Core/Src/adc.c ****   }
 342              		.loc 1 134 5 is_stmt 1 view .LVU124
 343 0076 FFF7FEFF 		bl	Error_Handler
 344              	.LVL11:
 345 007a E4E7     		b	.L14
 346              	.L19:
 147:Core/Src/adc.c ****   }
 347              		.loc 1 147 5 view .LVU125
 348 007c FFF7FEFF 		bl	Error_Handler
 349              	.LVL12:
ARM GAS  C:\Users\User\AppData\Local\Temp\cc0Y6K8j.s 			page 10


 350 0080 EFE7     		b	.L15
 351              	.L20:
 155:Core/Src/adc.c ****   }
 352              		.loc 1 155 5 view .LVU126
 353 0082 FFF7FEFF 		bl	Error_Handler
 354              	.LVL13:
 355              		.loc 1 161 1 is_stmt 0 view .LVU127
 356 0086 F3E7     		b	.L13
 357              	.L22:
 358              		.align	2
 359              	.L21:
 360 0088 00000000 		.word	.LANCHOR1
 361 008c 00010050 		.word	1342177536
 362              		.cfi_endproc
 363              	.LFE124:
 365              		.section	.text.HAL_ADC_MspInit,"ax",%progbits
 366              		.align	1
 367              		.global	HAL_ADC_MspInit
 368              		.syntax unified
 369              		.thumb
 370              		.thumb_func
 372              	HAL_ADC_MspInit:
 373              	.LVL14:
 374              	.LFB125:
 162:Core/Src/adc.c **** 
 163:Core/Src/adc.c **** static uint32_t HAL_RCC_ADC12_CLK_ENABLED=0;
 164:Core/Src/adc.c **** 
 165:Core/Src/adc.c **** void HAL_ADC_MspInit(ADC_HandleTypeDef* adcHandle)
 166:Core/Src/adc.c **** {
 375              		.loc 1 166 1 is_stmt 1 view -0
 376              		.cfi_startproc
 377              		@ args = 0, pretend = 0, frame = 40
 378              		@ frame_needed = 0, uses_anonymous_args = 0
 379              		.loc 1 166 1 is_stmt 0 view .LVU129
 380 0000 10B5     		push	{r4, lr}
 381              	.LCFI8:
 382              		.cfi_def_cfa_offset 8
 383              		.cfi_offset 4, -8
 384              		.cfi_offset 14, -4
 385 0002 8AB0     		sub	sp, sp, #40
 386              	.LCFI9:
 387              		.cfi_def_cfa_offset 48
 388 0004 0446     		mov	r4, r0
 167:Core/Src/adc.c **** 
 168:Core/Src/adc.c ****   GPIO_InitTypeDef GPIO_InitStruct = {0};
 389              		.loc 1 168 3 is_stmt 1 view .LVU130
 390              		.loc 1 168 20 is_stmt 0 view .LVU131
 391 0006 0023     		movs	r3, #0
 392 0008 0593     		str	r3, [sp, #20]
 393 000a 0693     		str	r3, [sp, #24]
 394 000c 0793     		str	r3, [sp, #28]
 395 000e 0893     		str	r3, [sp, #32]
 396 0010 0993     		str	r3, [sp, #36]
 169:Core/Src/adc.c ****   if(adcHandle->Instance==ADC1)
 397              		.loc 1 169 3 is_stmt 1 view .LVU132
 398              		.loc 1 169 15 is_stmt 0 view .LVU133
 399 0012 0368     		ldr	r3, [r0]
ARM GAS  C:\Users\User\AppData\Local\Temp\cc0Y6K8j.s 			page 11


 400              		.loc 1 169 5 view .LVU134
 401 0014 B3F1A04F 		cmp	r3, #1342177280
 402 0018 04D0     		beq	.L31
 170:Core/Src/adc.c ****   {
 171:Core/Src/adc.c ****   /* USER CODE BEGIN ADC1_MspInit 0 */
 172:Core/Src/adc.c **** 
 173:Core/Src/adc.c ****   /* USER CODE END ADC1_MspInit 0 */
 174:Core/Src/adc.c ****     /* ADC1 clock enable */
 175:Core/Src/adc.c ****     HAL_RCC_ADC12_CLK_ENABLED++;
 176:Core/Src/adc.c ****     if(HAL_RCC_ADC12_CLK_ENABLED==1){
 177:Core/Src/adc.c ****       __HAL_RCC_ADC12_CLK_ENABLE();
 178:Core/Src/adc.c ****     }
 179:Core/Src/adc.c **** 
 180:Core/Src/adc.c ****     __HAL_RCC_GPIOA_CLK_ENABLE();
 181:Core/Src/adc.c ****     /**ADC1 GPIO Configuration
 182:Core/Src/adc.c ****     PA0     ------> ADC1_IN1
 183:Core/Src/adc.c ****     PA1     ------> ADC1_IN2
 184:Core/Src/adc.c ****     */
 185:Core/Src/adc.c ****     GPIO_InitStruct.Pin = GPIO_PIN_0|GPIO_PIN_1;
 186:Core/Src/adc.c ****     GPIO_InitStruct.Mode = GPIO_MODE_ANALOG;
 187:Core/Src/adc.c ****     GPIO_InitStruct.Pull = GPIO_NOPULL;
 188:Core/Src/adc.c ****     HAL_GPIO_Init(GPIOA, &GPIO_InitStruct);
 189:Core/Src/adc.c **** 
 190:Core/Src/adc.c ****     /* ADC1 DMA Init */
 191:Core/Src/adc.c ****     /* ADC1 Init */
 192:Core/Src/adc.c ****     hdma_adc1.Instance = DMA1_Channel1;
 193:Core/Src/adc.c ****     hdma_adc1.Init.Direction = DMA_PERIPH_TO_MEMORY;
 194:Core/Src/adc.c ****     hdma_adc1.Init.PeriphInc = DMA_PINC_DISABLE;
 195:Core/Src/adc.c ****     hdma_adc1.Init.MemInc = DMA_MINC_ENABLE;
 196:Core/Src/adc.c ****     hdma_adc1.Init.PeriphDataAlignment = DMA_PDATAALIGN_HALFWORD;
 197:Core/Src/adc.c ****     hdma_adc1.Init.MemDataAlignment = DMA_MDATAALIGN_HALFWORD;
 198:Core/Src/adc.c ****     hdma_adc1.Init.Mode = DMA_CIRCULAR;
 199:Core/Src/adc.c ****     hdma_adc1.Init.Priority = DMA_PRIORITY_LOW;
 200:Core/Src/adc.c ****     if (HAL_DMA_Init(&hdma_adc1) != HAL_OK)
 201:Core/Src/adc.c ****     {
 202:Core/Src/adc.c ****       Error_Handler();
 203:Core/Src/adc.c ****     }
 204:Core/Src/adc.c **** 
 205:Core/Src/adc.c ****     __HAL_LINKDMA(adcHandle,DMA_Handle,hdma_adc1);
 206:Core/Src/adc.c **** 
 207:Core/Src/adc.c ****   /* USER CODE BEGIN ADC1_MspInit 1 */
 208:Core/Src/adc.c **** 
 209:Core/Src/adc.c ****   /* USER CODE END ADC1_MspInit 1 */
 210:Core/Src/adc.c ****   }
 211:Core/Src/adc.c ****   else if(adcHandle->Instance==ADC2)
 403              		.loc 1 211 8 is_stmt 1 view .LVU135
 404              		.loc 1 211 10 is_stmt 0 view .LVU136
 405 001a 414A     		ldr	r2, .L37
 406 001c 9342     		cmp	r3, r2
 407 001e 3FD0     		beq	.L32
 408              	.LVL15:
 409              	.L23:
 212:Core/Src/adc.c ****   {
 213:Core/Src/adc.c ****   /* USER CODE BEGIN ADC2_MspInit 0 */
 214:Core/Src/adc.c **** 
 215:Core/Src/adc.c ****   /* USER CODE END ADC2_MspInit 0 */
 216:Core/Src/adc.c ****     /* ADC2 clock enable */
ARM GAS  C:\Users\User\AppData\Local\Temp\cc0Y6K8j.s 			page 12


 217:Core/Src/adc.c ****     HAL_RCC_ADC12_CLK_ENABLED++;
 218:Core/Src/adc.c ****     if(HAL_RCC_ADC12_CLK_ENABLED==1){
 219:Core/Src/adc.c ****       __HAL_RCC_ADC12_CLK_ENABLE();
 220:Core/Src/adc.c ****     }
 221:Core/Src/adc.c **** 
 222:Core/Src/adc.c ****     __HAL_RCC_GPIOA_CLK_ENABLE();
 223:Core/Src/adc.c ****     /**ADC2 GPIO Configuration
 224:Core/Src/adc.c ****     PA4     ------> ADC2_IN1
 225:Core/Src/adc.c ****     PA5     ------> ADC2_IN2
 226:Core/Src/adc.c ****     PA6     ------> ADC2_IN3
 227:Core/Src/adc.c ****     PA7     ------> ADC2_IN4
 228:Core/Src/adc.c ****     */
 229:Core/Src/adc.c ****     GPIO_InitStruct.Pin = GPIO_PIN_4|GPIO_PIN_5|GPIO_PIN_6|GPIO_PIN_7;
 230:Core/Src/adc.c ****     GPIO_InitStruct.Mode = GPIO_MODE_ANALOG;
 231:Core/Src/adc.c ****     GPIO_InitStruct.Pull = GPIO_NOPULL;
 232:Core/Src/adc.c ****     HAL_GPIO_Init(GPIOA, &GPIO_InitStruct);
 233:Core/Src/adc.c **** 
 234:Core/Src/adc.c ****     /* ADC2 DMA Init */
 235:Core/Src/adc.c ****     /* ADC2 Init */
 236:Core/Src/adc.c ****     hdma_adc2.Instance = DMA1_Channel2;
 237:Core/Src/adc.c ****     hdma_adc2.Init.Direction = DMA_PERIPH_TO_MEMORY;
 238:Core/Src/adc.c ****     hdma_adc2.Init.PeriphInc = DMA_PINC_DISABLE;
 239:Core/Src/adc.c ****     hdma_adc2.Init.MemInc = DMA_MINC_ENABLE;
 240:Core/Src/adc.c ****     hdma_adc2.Init.PeriphDataAlignment = DMA_PDATAALIGN_HALFWORD;
 241:Core/Src/adc.c ****     hdma_adc2.Init.MemDataAlignment = DMA_MDATAALIGN_HALFWORD;
 242:Core/Src/adc.c ****     hdma_adc2.Init.Mode = DMA_CIRCULAR;
 243:Core/Src/adc.c ****     hdma_adc2.Init.Priority = DMA_PRIORITY_LOW;
 244:Core/Src/adc.c ****     if (HAL_DMA_Init(&hdma_adc2) != HAL_OK)
 245:Core/Src/adc.c ****     {
 246:Core/Src/adc.c ****       Error_Handler();
 247:Core/Src/adc.c ****     }
 248:Core/Src/adc.c **** 
 249:Core/Src/adc.c ****     __HAL_LINKDMA(adcHandle,DMA_Handle,hdma_adc2);
 250:Core/Src/adc.c **** 
 251:Core/Src/adc.c ****   /* USER CODE BEGIN ADC2_MspInit 1 */
 252:Core/Src/adc.c **** 
 253:Core/Src/adc.c ****   /* USER CODE END ADC2_MspInit 1 */
 254:Core/Src/adc.c ****   }
 255:Core/Src/adc.c **** }
 410              		.loc 1 255 1 view .LVU137
 411 0020 0AB0     		add	sp, sp, #40
 412              	.LCFI10:
 413              		.cfi_remember_state
 414              		.cfi_def_cfa_offset 8
 415              		@ sp needed
 416 0022 10BD     		pop	{r4, pc}
 417              	.LVL16:
 418              	.L31:
 419              	.LCFI11:
 420              		.cfi_restore_state
 175:Core/Src/adc.c ****     if(HAL_RCC_ADC12_CLK_ENABLED==1){
 421              		.loc 1 175 5 is_stmt 1 view .LVU138
 175:Core/Src/adc.c ****     if(HAL_RCC_ADC12_CLK_ENABLED==1){
 422              		.loc 1 175 30 is_stmt 0 view .LVU139
 423 0024 3F4A     		ldr	r2, .L37+4
 424 0026 1368     		ldr	r3, [r2]
 425 0028 0133     		adds	r3, r3, #1
ARM GAS  C:\Users\User\AppData\Local\Temp\cc0Y6K8j.s 			page 13


 426 002a 1360     		str	r3, [r2]
 176:Core/Src/adc.c ****       __HAL_RCC_ADC12_CLK_ENABLE();
 427              		.loc 1 176 5 is_stmt 1 view .LVU140
 176:Core/Src/adc.c ****       __HAL_RCC_ADC12_CLK_ENABLE();
 428              		.loc 1 176 7 is_stmt 0 view .LVU141
 429 002c 012B     		cmp	r3, #1
 430 002e 29D0     		beq	.L33
 431              	.L25:
 177:Core/Src/adc.c ****     }
 432              		.loc 1 177 7 is_stmt 1 discriminator 1 view .LVU142
 180:Core/Src/adc.c ****     /**ADC1 GPIO Configuration
 433              		.loc 1 180 5 discriminator 1 view .LVU143
 434              	.LBB2:
 180:Core/Src/adc.c ****     /**ADC1 GPIO Configuration
 435              		.loc 1 180 5 discriminator 1 view .LVU144
 180:Core/Src/adc.c ****     /**ADC1 GPIO Configuration
 436              		.loc 1 180 5 discriminator 1 view .LVU145
 437 0030 3D4B     		ldr	r3, .L37+8
 438 0032 5A69     		ldr	r2, [r3, #20]
 439 0034 42F40032 		orr	r2, r2, #131072
 440 0038 5A61     		str	r2, [r3, #20]
 180:Core/Src/adc.c ****     /**ADC1 GPIO Configuration
 441              		.loc 1 180 5 discriminator 1 view .LVU146
 442 003a 5B69     		ldr	r3, [r3, #20]
 443 003c 03F40033 		and	r3, r3, #131072
 444 0040 0293     		str	r3, [sp, #8]
 180:Core/Src/adc.c ****     /**ADC1 GPIO Configuration
 445              		.loc 1 180 5 discriminator 1 view .LVU147
 446 0042 029B     		ldr	r3, [sp, #8]
 447              	.LBE2:
 180:Core/Src/adc.c ****     /**ADC1 GPIO Configuration
 448              		.loc 1 180 5 discriminator 1 view .LVU148
 185:Core/Src/adc.c ****     GPIO_InitStruct.Mode = GPIO_MODE_ANALOG;
 449              		.loc 1 185 5 discriminator 1 view .LVU149
 185:Core/Src/adc.c ****     GPIO_InitStruct.Mode = GPIO_MODE_ANALOG;
 450              		.loc 1 185 25 is_stmt 0 discriminator 1 view .LVU150
 451 0044 0323     		movs	r3, #3
 452 0046 0593     		str	r3, [sp, #20]
 186:Core/Src/adc.c ****     GPIO_InitStruct.Pull = GPIO_NOPULL;
 453              		.loc 1 186 5 is_stmt 1 discriminator 1 view .LVU151
 186:Core/Src/adc.c ****     GPIO_InitStruct.Pull = GPIO_NOPULL;
 454              		.loc 1 186 26 is_stmt 0 discriminator 1 view .LVU152
 455 0048 0693     		str	r3, [sp, #24]
 187:Core/Src/adc.c ****     HAL_GPIO_Init(GPIOA, &GPIO_InitStruct);
 456              		.loc 1 187 5 is_stmt 1 discriminator 1 view .LVU153
 188:Core/Src/adc.c **** 
 457              		.loc 1 188 5 discriminator 1 view .LVU154
 458 004a 05A9     		add	r1, sp, #20
 459 004c 4FF09040 		mov	r0, #1207959552
 460              	.LVL17:
 188:Core/Src/adc.c **** 
 461              		.loc 1 188 5 is_stmt 0 discriminator 1 view .LVU155
 462 0050 FFF7FEFF 		bl	HAL_GPIO_Init
 463              	.LVL18:
 192:Core/Src/adc.c ****     hdma_adc1.Init.Direction = DMA_PERIPH_TO_MEMORY;
 464              		.loc 1 192 5 is_stmt 1 discriminator 1 view .LVU156
 192:Core/Src/adc.c ****     hdma_adc1.Init.Direction = DMA_PERIPH_TO_MEMORY;
ARM GAS  C:\Users\User\AppData\Local\Temp\cc0Y6K8j.s 			page 14


 465              		.loc 1 192 24 is_stmt 0 discriminator 1 view .LVU157
 466 0054 3548     		ldr	r0, .L37+12
 467 0056 364B     		ldr	r3, .L37+16
 468 0058 0360     		str	r3, [r0]
 193:Core/Src/adc.c ****     hdma_adc1.Init.PeriphInc = DMA_PINC_DISABLE;
 469              		.loc 1 193 5 is_stmt 1 discriminator 1 view .LVU158
 193:Core/Src/adc.c ****     hdma_adc1.Init.PeriphInc = DMA_PINC_DISABLE;
 470              		.loc 1 193 30 is_stmt 0 discriminator 1 view .LVU159
 471 005a 0023     		movs	r3, #0
 472 005c 4360     		str	r3, [r0, #4]
 194:Core/Src/adc.c ****     hdma_adc1.Init.MemInc = DMA_MINC_ENABLE;
 473              		.loc 1 194 5 is_stmt 1 discriminator 1 view .LVU160
 194:Core/Src/adc.c ****     hdma_adc1.Init.MemInc = DMA_MINC_ENABLE;
 474              		.loc 1 194 30 is_stmt 0 discriminator 1 view .LVU161
 475 005e 8360     		str	r3, [r0, #8]
 195:Core/Src/adc.c ****     hdma_adc1.Init.PeriphDataAlignment = DMA_PDATAALIGN_HALFWORD;
 476              		.loc 1 195 5 is_stmt 1 discriminator 1 view .LVU162
 195:Core/Src/adc.c ****     hdma_adc1.Init.PeriphDataAlignment = DMA_PDATAALIGN_HALFWORD;
 477              		.loc 1 195 27 is_stmt 0 discriminator 1 view .LVU163
 478 0060 8022     		movs	r2, #128
 479 0062 C260     		str	r2, [r0, #12]
 196:Core/Src/adc.c ****     hdma_adc1.Init.MemDataAlignment = DMA_MDATAALIGN_HALFWORD;
 480              		.loc 1 196 5 is_stmt 1 discriminator 1 view .LVU164
 196:Core/Src/adc.c ****     hdma_adc1.Init.MemDataAlignment = DMA_MDATAALIGN_HALFWORD;
 481              		.loc 1 196 40 is_stmt 0 discriminator 1 view .LVU165
 482 0064 4FF48072 		mov	r2, #256
 483 0068 0261     		str	r2, [r0, #16]
 197:Core/Src/adc.c ****     hdma_adc1.Init.Mode = DMA_CIRCULAR;
 484              		.loc 1 197 5 is_stmt 1 discriminator 1 view .LVU166
 197:Core/Src/adc.c ****     hdma_adc1.Init.Mode = DMA_CIRCULAR;
 485              		.loc 1 197 37 is_stmt 0 discriminator 1 view .LVU167
 486 006a 4FF48062 		mov	r2, #1024
 487 006e 4261     		str	r2, [r0, #20]
 198:Core/Src/adc.c ****     hdma_adc1.Init.Priority = DMA_PRIORITY_LOW;
 488              		.loc 1 198 5 is_stmt 1 discriminator 1 view .LVU168
 198:Core/Src/adc.c ****     hdma_adc1.Init.Priority = DMA_PRIORITY_LOW;
 489              		.loc 1 198 25 is_stmt 0 discriminator 1 view .LVU169
 490 0070 2022     		movs	r2, #32
 491 0072 8261     		str	r2, [r0, #24]
 199:Core/Src/adc.c ****     if (HAL_DMA_Init(&hdma_adc1) != HAL_OK)
 492              		.loc 1 199 5 is_stmt 1 discriminator 1 view .LVU170
 199:Core/Src/adc.c ****     if (HAL_DMA_Init(&hdma_adc1) != HAL_OK)
 493              		.loc 1 199 29 is_stmt 0 discriminator 1 view .LVU171
 494 0074 C361     		str	r3, [r0, #28]
 200:Core/Src/adc.c ****     {
 495              		.loc 1 200 5 is_stmt 1 discriminator 1 view .LVU172
 200:Core/Src/adc.c ****     {
 496              		.loc 1 200 9 is_stmt 0 discriminator 1 view .LVU173
 497 0076 FFF7FEFF 		bl	HAL_DMA_Init
 498              	.LVL19:
 200:Core/Src/adc.c ****     {
 499              		.loc 1 200 8 discriminator 1 view .LVU174
 500 007a 70B9     		cbnz	r0, .L34
 501              	.L26:
 205:Core/Src/adc.c **** 
 502              		.loc 1 205 5 is_stmt 1 view .LVU175
 205:Core/Src/adc.c **** 
ARM GAS  C:\Users\User\AppData\Local\Temp\cc0Y6K8j.s 			page 15


 503              		.loc 1 205 5 view .LVU176
 504 007c 2B4B     		ldr	r3, .L37+12
 505 007e A363     		str	r3, [r4, #56]
 205:Core/Src/adc.c **** 
 506              		.loc 1 205 5 view .LVU177
 507 0080 5C62     		str	r4, [r3, #36]
 205:Core/Src/adc.c **** 
 508              		.loc 1 205 5 view .LVU178
 509 0082 CDE7     		b	.L23
 510              	.LVL20:
 511              	.L33:
 177:Core/Src/adc.c ****     }
 512              		.loc 1 177 7 view .LVU179
 513              	.LBB3:
 177:Core/Src/adc.c ****     }
 514              		.loc 1 177 7 view .LVU180
 177:Core/Src/adc.c ****     }
 515              		.loc 1 177 7 view .LVU181
 516 0084 284B     		ldr	r3, .L37+8
 517 0086 5A69     		ldr	r2, [r3, #20]
 518 0088 42F08052 		orr	r2, r2, #268435456
 519 008c 5A61     		str	r2, [r3, #20]
 177:Core/Src/adc.c ****     }
 520              		.loc 1 177 7 view .LVU182
 521 008e 5B69     		ldr	r3, [r3, #20]
 522 0090 03F08053 		and	r3, r3, #268435456
 523 0094 0193     		str	r3, [sp, #4]
 177:Core/Src/adc.c ****     }
 524              		.loc 1 177 7 view .LVU183
 525 0096 019B     		ldr	r3, [sp, #4]
 526 0098 CAE7     		b	.L25
 527              	.LVL21:
 528              	.L34:
 177:Core/Src/adc.c ****     }
 529              		.loc 1 177 7 is_stmt 0 view .LVU184
 530              	.LBE3:
 202:Core/Src/adc.c ****     }
 531              		.loc 1 202 7 is_stmt 1 view .LVU185
 532 009a FFF7FEFF 		bl	Error_Handler
 533              	.LVL22:
 534 009e EDE7     		b	.L26
 535              	.LVL23:
 536              	.L32:
 217:Core/Src/adc.c ****     if(HAL_RCC_ADC12_CLK_ENABLED==1){
 537              		.loc 1 217 5 view .LVU186
 217:Core/Src/adc.c ****     if(HAL_RCC_ADC12_CLK_ENABLED==1){
 538              		.loc 1 217 30 is_stmt 0 view .LVU187
 539 00a0 204A     		ldr	r2, .L37+4
 540 00a2 1368     		ldr	r3, [r2]
 541 00a4 0133     		adds	r3, r3, #1
 542 00a6 1360     		str	r3, [r2]
 218:Core/Src/adc.c ****       __HAL_RCC_ADC12_CLK_ENABLE();
 543              		.loc 1 218 5 is_stmt 1 view .LVU188
 218:Core/Src/adc.c ****       __HAL_RCC_ADC12_CLK_ENABLE();
 544              		.loc 1 218 7 is_stmt 0 view .LVU189
 545 00a8 012B     		cmp	r3, #1
 546 00aa 2AD0     		beq	.L35
ARM GAS  C:\Users\User\AppData\Local\Temp\cc0Y6K8j.s 			page 16


 547              	.L28:
 219:Core/Src/adc.c ****     }
 548              		.loc 1 219 7 is_stmt 1 discriminator 1 view .LVU190
 222:Core/Src/adc.c ****     /**ADC2 GPIO Configuration
 549              		.loc 1 222 5 discriminator 1 view .LVU191
 550              	.LBB4:
 222:Core/Src/adc.c ****     /**ADC2 GPIO Configuration
 551              		.loc 1 222 5 discriminator 1 view .LVU192
 222:Core/Src/adc.c ****     /**ADC2 GPIO Configuration
 552              		.loc 1 222 5 discriminator 1 view .LVU193
 553 00ac 1E4B     		ldr	r3, .L37+8
 554 00ae 5A69     		ldr	r2, [r3, #20]
 555 00b0 42F40032 		orr	r2, r2, #131072
 556 00b4 5A61     		str	r2, [r3, #20]
 222:Core/Src/adc.c ****     /**ADC2 GPIO Configuration
 557              		.loc 1 222 5 discriminator 1 view .LVU194
 558 00b6 5B69     		ldr	r3, [r3, #20]
 559 00b8 03F40033 		and	r3, r3, #131072
 560 00bc 0493     		str	r3, [sp, #16]
 222:Core/Src/adc.c ****     /**ADC2 GPIO Configuration
 561              		.loc 1 222 5 discriminator 1 view .LVU195
 562 00be 049B     		ldr	r3, [sp, #16]
 563              	.LBE4:
 222:Core/Src/adc.c ****     /**ADC2 GPIO Configuration
 564              		.loc 1 222 5 discriminator 1 view .LVU196
 229:Core/Src/adc.c ****     GPIO_InitStruct.Mode = GPIO_MODE_ANALOG;
 565              		.loc 1 229 5 discriminator 1 view .LVU197
 229:Core/Src/adc.c ****     GPIO_InitStruct.Mode = GPIO_MODE_ANALOG;
 566              		.loc 1 229 25 is_stmt 0 discriminator 1 view .LVU198
 567 00c0 F023     		movs	r3, #240
 568 00c2 0593     		str	r3, [sp, #20]
 230:Core/Src/adc.c ****     GPIO_InitStruct.Pull = GPIO_NOPULL;
 569              		.loc 1 230 5 is_stmt 1 discriminator 1 view .LVU199
 230:Core/Src/adc.c ****     GPIO_InitStruct.Pull = GPIO_NOPULL;
 570              		.loc 1 230 26 is_stmt 0 discriminator 1 view .LVU200
 571 00c4 0323     		movs	r3, #3
 572 00c6 0693     		str	r3, [sp, #24]
 231:Core/Src/adc.c ****     HAL_GPIO_Init(GPIOA, &GPIO_InitStruct);
 573              		.loc 1 231 5 is_stmt 1 discriminator 1 view .LVU201
 232:Core/Src/adc.c **** 
 574              		.loc 1 232 5 discriminator 1 view .LVU202
 575 00c8 05A9     		add	r1, sp, #20
 576 00ca 4FF09040 		mov	r0, #1207959552
 577              	.LVL24:
 232:Core/Src/adc.c **** 
 578              		.loc 1 232 5 is_stmt 0 discriminator 1 view .LVU203
 579 00ce FFF7FEFF 		bl	HAL_GPIO_Init
 580              	.LVL25:
 236:Core/Src/adc.c ****     hdma_adc2.Init.Direction = DMA_PERIPH_TO_MEMORY;
 581              		.loc 1 236 5 is_stmt 1 discriminator 1 view .LVU204
 236:Core/Src/adc.c ****     hdma_adc2.Init.Direction = DMA_PERIPH_TO_MEMORY;
 582              		.loc 1 236 24 is_stmt 0 discriminator 1 view .LVU205
 583 00d2 1848     		ldr	r0, .L37+20
 584 00d4 184B     		ldr	r3, .L37+24
 585 00d6 0360     		str	r3, [r0]
 237:Core/Src/adc.c ****     hdma_adc2.Init.PeriphInc = DMA_PINC_DISABLE;
 586              		.loc 1 237 5 is_stmt 1 discriminator 1 view .LVU206
ARM GAS  C:\Users\User\AppData\Local\Temp\cc0Y6K8j.s 			page 17


 237:Core/Src/adc.c ****     hdma_adc2.Init.PeriphInc = DMA_PINC_DISABLE;
 587              		.loc 1 237 30 is_stmt 0 discriminator 1 view .LVU207
 588 00d8 0023     		movs	r3, #0
 589 00da 4360     		str	r3, [r0, #4]
 238:Core/Src/adc.c ****     hdma_adc2.Init.MemInc = DMA_MINC_ENABLE;
 590              		.loc 1 238 5 is_stmt 1 discriminator 1 view .LVU208
 238:Core/Src/adc.c ****     hdma_adc2.Init.MemInc = DMA_MINC_ENABLE;
 591              		.loc 1 238 30 is_stmt 0 discriminator 1 view .LVU209
 592 00dc 8360     		str	r3, [r0, #8]
 239:Core/Src/adc.c ****     hdma_adc2.Init.PeriphDataAlignment = DMA_PDATAALIGN_HALFWORD;
 593              		.loc 1 239 5 is_stmt 1 discriminator 1 view .LVU210
 239:Core/Src/adc.c ****     hdma_adc2.Init.PeriphDataAlignment = DMA_PDATAALIGN_HALFWORD;
 594              		.loc 1 239 27 is_stmt 0 discriminator 1 view .LVU211
 595 00de 8022     		movs	r2, #128
 596 00e0 C260     		str	r2, [r0, #12]
 240:Core/Src/adc.c ****     hdma_adc2.Init.MemDataAlignment = DMA_MDATAALIGN_HALFWORD;
 597              		.loc 1 240 5 is_stmt 1 discriminator 1 view .LVU212
 240:Core/Src/adc.c ****     hdma_adc2.Init.MemDataAlignment = DMA_MDATAALIGN_HALFWORD;
 598              		.loc 1 240 40 is_stmt 0 discriminator 1 view .LVU213
 599 00e2 4FF48072 		mov	r2, #256
 600 00e6 0261     		str	r2, [r0, #16]
 241:Core/Src/adc.c ****     hdma_adc2.Init.Mode = DMA_CIRCULAR;
 601              		.loc 1 241 5 is_stmt 1 discriminator 1 view .LVU214
 241:Core/Src/adc.c ****     hdma_adc2.Init.Mode = DMA_CIRCULAR;
 602              		.loc 1 241 37 is_stmt 0 discriminator 1 view .LVU215
 603 00e8 4FF48062 		mov	r2, #1024
 604 00ec 4261     		str	r2, [r0, #20]
 242:Core/Src/adc.c ****     hdma_adc2.Init.Priority = DMA_PRIORITY_LOW;
 605              		.loc 1 242 5 is_stmt 1 discriminator 1 view .LVU216
 242:Core/Src/adc.c ****     hdma_adc2.Init.Priority = DMA_PRIORITY_LOW;
 606              		.loc 1 242 25 is_stmt 0 discriminator 1 view .LVU217
 607 00ee 2022     		movs	r2, #32
 608 00f0 8261     		str	r2, [r0, #24]
 243:Core/Src/adc.c ****     if (HAL_DMA_Init(&hdma_adc2) != HAL_OK)
 609              		.loc 1 243 5 is_stmt 1 discriminator 1 view .LVU218
 243:Core/Src/adc.c ****     if (HAL_DMA_Init(&hdma_adc2) != HAL_OK)
 610              		.loc 1 243 29 is_stmt 0 discriminator 1 view .LVU219
 611 00f2 C361     		str	r3, [r0, #28]
 244:Core/Src/adc.c ****     {
 612              		.loc 1 244 5 is_stmt 1 discriminator 1 view .LVU220
 244:Core/Src/adc.c ****     {
 613              		.loc 1 244 9 is_stmt 0 discriminator 1 view .LVU221
 614 00f4 FFF7FEFF 		bl	HAL_DMA_Init
 615              	.LVL26:
 244:Core/Src/adc.c ****     {
 616              		.loc 1 244 8 discriminator 1 view .LVU222
 617 00f8 70B9     		cbnz	r0, .L36
 618              	.L29:
 249:Core/Src/adc.c **** 
 619              		.loc 1 249 5 is_stmt 1 view .LVU223
 249:Core/Src/adc.c **** 
 620              		.loc 1 249 5 view .LVU224
 621 00fa 0E4B     		ldr	r3, .L37+20
 622 00fc A363     		str	r3, [r4, #56]
 249:Core/Src/adc.c **** 
 623              		.loc 1 249 5 view .LVU225
 624 00fe 5C62     		str	r4, [r3, #36]
ARM GAS  C:\Users\User\AppData\Local\Temp\cc0Y6K8j.s 			page 18


 249:Core/Src/adc.c **** 
 625              		.loc 1 249 5 view .LVU226
 626              		.loc 1 255 1 is_stmt 0 view .LVU227
 627 0100 8EE7     		b	.L23
 628              	.LVL27:
 629              	.L35:
 219:Core/Src/adc.c ****     }
 630              		.loc 1 219 7 is_stmt 1 view .LVU228
 631              	.LBB5:
 219:Core/Src/adc.c ****     }
 632              		.loc 1 219 7 view .LVU229
 219:Core/Src/adc.c ****     }
 633              		.loc 1 219 7 view .LVU230
 634 0102 094B     		ldr	r3, .L37+8
 635 0104 5A69     		ldr	r2, [r3, #20]
 636 0106 42F08052 		orr	r2, r2, #268435456
 637 010a 5A61     		str	r2, [r3, #20]
 219:Core/Src/adc.c ****     }
 638              		.loc 1 219 7 view .LVU231
 639 010c 5B69     		ldr	r3, [r3, #20]
 640 010e 03F08053 		and	r3, r3, #268435456
 641 0112 0393     		str	r3, [sp, #12]
 219:Core/Src/adc.c ****     }
 642              		.loc 1 219 7 view .LVU232
 643 0114 039B     		ldr	r3, [sp, #12]
 644 0116 C9E7     		b	.L28
 645              	.LVL28:
 646              	.L36:
 219:Core/Src/adc.c ****     }
 647              		.loc 1 219 7 is_stmt 0 view .LVU233
 648              	.LBE5:
 246:Core/Src/adc.c ****     }
 649              		.loc 1 246 7 is_stmt 1 view .LVU234
 650 0118 FFF7FEFF 		bl	Error_Handler
 651              	.LVL29:
 652 011c EDE7     		b	.L29
 653              	.L38:
 654 011e 00BF     		.align	2
 655              	.L37:
 656 0120 00010050 		.word	1342177536
 657 0124 00000000 		.word	.LANCHOR2
 658 0128 00100240 		.word	1073876992
 659 012c 00000000 		.word	.LANCHOR3
 660 0130 08000240 		.word	1073872904
 661 0134 00000000 		.word	.LANCHOR4
 662 0138 1C000240 		.word	1073872924
 663              		.cfi_endproc
 664              	.LFE125:
 666              		.section	.text.HAL_ADC_MspDeInit,"ax",%progbits
 667              		.align	1
 668              		.global	HAL_ADC_MspDeInit
 669              		.syntax unified
 670              		.thumb
 671              		.thumb_func
 673              	HAL_ADC_MspDeInit:
 674              	.LVL30:
 675              	.LFB126:
ARM GAS  C:\Users\User\AppData\Local\Temp\cc0Y6K8j.s 			page 19


 256:Core/Src/adc.c **** 
 257:Core/Src/adc.c **** void HAL_ADC_MspDeInit(ADC_HandleTypeDef* adcHandle)
 258:Core/Src/adc.c **** {
 676              		.loc 1 258 1 view -0
 677              		.cfi_startproc
 678              		@ args = 0, pretend = 0, frame = 0
 679              		@ frame_needed = 0, uses_anonymous_args = 0
 680              		.loc 1 258 1 is_stmt 0 view .LVU236
 681 0000 10B5     		push	{r4, lr}
 682              	.LCFI12:
 683              		.cfi_def_cfa_offset 8
 684              		.cfi_offset 4, -8
 685              		.cfi_offset 14, -4
 686 0002 0446     		mov	r4, r0
 259:Core/Src/adc.c **** 
 260:Core/Src/adc.c ****   if(adcHandle->Instance==ADC1)
 687              		.loc 1 260 3 is_stmt 1 view .LVU237
 688              		.loc 1 260 15 is_stmt 0 view .LVU238
 689 0004 0368     		ldr	r3, [r0]
 690              		.loc 1 260 5 view .LVU239
 691 0006 B3F1A04F 		cmp	r3, #1342177280
 692 000a 03D0     		beq	.L45
 261:Core/Src/adc.c ****   {
 262:Core/Src/adc.c ****   /* USER CODE BEGIN ADC1_MspDeInit 0 */
 263:Core/Src/adc.c **** 
 264:Core/Src/adc.c ****   /* USER CODE END ADC1_MspDeInit 0 */
 265:Core/Src/adc.c ****     /* Peripheral clock disable */
 266:Core/Src/adc.c ****     HAL_RCC_ADC12_CLK_ENABLED--;
 267:Core/Src/adc.c ****     if(HAL_RCC_ADC12_CLK_ENABLED==0){
 268:Core/Src/adc.c ****       __HAL_RCC_ADC12_CLK_DISABLE();
 269:Core/Src/adc.c ****     }
 270:Core/Src/adc.c **** 
 271:Core/Src/adc.c ****     /**ADC1 GPIO Configuration
 272:Core/Src/adc.c ****     PA0     ------> ADC1_IN1
 273:Core/Src/adc.c ****     PA1     ------> ADC1_IN2
 274:Core/Src/adc.c ****     */
 275:Core/Src/adc.c ****     HAL_GPIO_DeInit(GPIOA, GPIO_PIN_0|GPIO_PIN_1);
 276:Core/Src/adc.c **** 
 277:Core/Src/adc.c ****     /* ADC1 DMA DeInit */
 278:Core/Src/adc.c ****     HAL_DMA_DeInit(adcHandle->DMA_Handle);
 279:Core/Src/adc.c ****   /* USER CODE BEGIN ADC1_MspDeInit 1 */
 280:Core/Src/adc.c **** 
 281:Core/Src/adc.c ****   /* USER CODE END ADC1_MspDeInit 1 */
 282:Core/Src/adc.c ****   }
 283:Core/Src/adc.c ****   else if(adcHandle->Instance==ADC2)
 693              		.loc 1 283 8 is_stmt 1 view .LVU240
 694              		.loc 1 283 10 is_stmt 0 view .LVU241
 695 000c 144A     		ldr	r2, .L47
 696 000e 9342     		cmp	r3, r2
 697 0010 13D0     		beq	.L46
 698              	.LVL31:
 699              	.L39:
 284:Core/Src/adc.c ****   {
 285:Core/Src/adc.c ****   /* USER CODE BEGIN ADC2_MspDeInit 0 */
 286:Core/Src/adc.c **** 
 287:Core/Src/adc.c ****   /* USER CODE END ADC2_MspDeInit 0 */
 288:Core/Src/adc.c ****     /* Peripheral clock disable */
ARM GAS  C:\Users\User\AppData\Local\Temp\cc0Y6K8j.s 			page 20


 289:Core/Src/adc.c ****     HAL_RCC_ADC12_CLK_ENABLED--;
 290:Core/Src/adc.c ****     if(HAL_RCC_ADC12_CLK_ENABLED==0){
 291:Core/Src/adc.c ****       __HAL_RCC_ADC12_CLK_DISABLE();
 292:Core/Src/adc.c ****     }
 293:Core/Src/adc.c **** 
 294:Core/Src/adc.c ****     /**ADC2 GPIO Configuration
 295:Core/Src/adc.c ****     PA4     ------> ADC2_IN1
 296:Core/Src/adc.c ****     PA5     ------> ADC2_IN2
 297:Core/Src/adc.c ****     PA6     ------> ADC2_IN3
 298:Core/Src/adc.c ****     PA7     ------> ADC2_IN4
 299:Core/Src/adc.c ****     */
 300:Core/Src/adc.c ****     HAL_GPIO_DeInit(GPIOA, GPIO_PIN_4|GPIO_PIN_5|GPIO_PIN_6|GPIO_PIN_7);
 301:Core/Src/adc.c **** 
 302:Core/Src/adc.c ****     /* ADC2 DMA DeInit */
 303:Core/Src/adc.c ****     HAL_DMA_DeInit(adcHandle->DMA_Handle);
 304:Core/Src/adc.c ****   /* USER CODE BEGIN ADC2_MspDeInit 1 */
 305:Core/Src/adc.c **** 
 306:Core/Src/adc.c ****   /* USER CODE END ADC2_MspDeInit 1 */
 307:Core/Src/adc.c ****   }
 308:Core/Src/adc.c **** }
 700              		.loc 1 308 1 view .LVU242
 701 0012 10BD     		pop	{r4, pc}
 702              	.LVL32:
 703              	.L45:
 266:Core/Src/adc.c ****     if(HAL_RCC_ADC12_CLK_ENABLED==0){
 704              		.loc 1 266 5 is_stmt 1 view .LVU243
 266:Core/Src/adc.c ****     if(HAL_RCC_ADC12_CLK_ENABLED==0){
 705              		.loc 1 266 30 is_stmt 0 view .LVU244
 706 0014 134A     		ldr	r2, .L47+4
 707 0016 1368     		ldr	r3, [r2]
 708 0018 013B     		subs	r3, r3, #1
 709 001a 1360     		str	r3, [r2]
 267:Core/Src/adc.c ****       __HAL_RCC_ADC12_CLK_DISABLE();
 710              		.loc 1 267 5 is_stmt 1 view .LVU245
 267:Core/Src/adc.c ****       __HAL_RCC_ADC12_CLK_DISABLE();
 711              		.loc 1 267 7 is_stmt 0 view .LVU246
 712 001c 23B9     		cbnz	r3, .L41
 268:Core/Src/adc.c ****     }
 713              		.loc 1 268 7 is_stmt 1 view .LVU247
 714 001e 124A     		ldr	r2, .L47+8
 715 0020 5369     		ldr	r3, [r2, #20]
 716 0022 23F08053 		bic	r3, r3, #268435456
 717 0026 5361     		str	r3, [r2, #20]
 718              	.L41:
 275:Core/Src/adc.c **** 
 719              		.loc 1 275 5 view .LVU248
 720 0028 0321     		movs	r1, #3
 721 002a 4FF09040 		mov	r0, #1207959552
 722              	.LVL33:
 275:Core/Src/adc.c **** 
 723              		.loc 1 275 5 is_stmt 0 view .LVU249
 724 002e FFF7FEFF 		bl	HAL_GPIO_DeInit
 725              	.LVL34:
 278:Core/Src/adc.c ****   /* USER CODE BEGIN ADC1_MspDeInit 1 */
 726              		.loc 1 278 5 is_stmt 1 view .LVU250
 727 0032 A06B     		ldr	r0, [r4, #56]
 728 0034 FFF7FEFF 		bl	HAL_DMA_DeInit
ARM GAS  C:\Users\User\AppData\Local\Temp\cc0Y6K8j.s 			page 21


 729              	.LVL35:
 730 0038 EBE7     		b	.L39
 731              	.LVL36:
 732              	.L46:
 289:Core/Src/adc.c ****     if(HAL_RCC_ADC12_CLK_ENABLED==0){
 733              		.loc 1 289 5 view .LVU251
 289:Core/Src/adc.c ****     if(HAL_RCC_ADC12_CLK_ENABLED==0){
 734              		.loc 1 289 30 is_stmt 0 view .LVU252
 735 003a 0A4A     		ldr	r2, .L47+4
 736 003c 1368     		ldr	r3, [r2]
 737 003e 013B     		subs	r3, r3, #1
 738 0040 1360     		str	r3, [r2]
 290:Core/Src/adc.c ****       __HAL_RCC_ADC12_CLK_DISABLE();
 739              		.loc 1 290 5 is_stmt 1 view .LVU253
 290:Core/Src/adc.c ****       __HAL_RCC_ADC12_CLK_DISABLE();
 740              		.loc 1 290 7 is_stmt 0 view .LVU254
 741 0042 23B9     		cbnz	r3, .L43
 291:Core/Src/adc.c ****     }
 742              		.loc 1 291 7 is_stmt 1 view .LVU255
 743 0044 084A     		ldr	r2, .L47+8
 744 0046 5369     		ldr	r3, [r2, #20]
 745 0048 23F08053 		bic	r3, r3, #268435456
 746 004c 5361     		str	r3, [r2, #20]
 747              	.L43:
 300:Core/Src/adc.c **** 
 748              		.loc 1 300 5 view .LVU256
 749 004e F021     		movs	r1, #240
 750 0050 4FF09040 		mov	r0, #1207959552
 751              	.LVL37:
 300:Core/Src/adc.c **** 
 752              		.loc 1 300 5 is_stmt 0 view .LVU257
 753 0054 FFF7FEFF 		bl	HAL_GPIO_DeInit
 754              	.LVL38:
 303:Core/Src/adc.c ****   /* USER CODE BEGIN ADC2_MspDeInit 1 */
 755              		.loc 1 303 5 is_stmt 1 view .LVU258
 756 0058 A06B     		ldr	r0, [r4, #56]
 757 005a FFF7FEFF 		bl	HAL_DMA_DeInit
 758              	.LVL39:
 759              		.loc 1 308 1 is_stmt 0 view .LVU259
 760 005e D8E7     		b	.L39
 761              	.L48:
 762              		.align	2
 763              	.L47:
 764 0060 00010050 		.word	1342177536
 765 0064 00000000 		.word	.LANCHOR2
 766 0068 00100240 		.word	1073876992
 767              		.cfi_endproc
 768              	.LFE126:
 770              		.global	hdma_adc2
 771              		.global	hdma_adc1
 772              		.global	hadc2
 773              		.global	hadc1
 774              		.section	.bss.HAL_RCC_ADC12_CLK_ENABLED,"aw",%nobits
 775              		.align	2
 776              		.set	.LANCHOR2,. + 0
 779              	HAL_RCC_ADC12_CLK_ENABLED:
 780 0000 00000000 		.space	4
ARM GAS  C:\Users\User\AppData\Local\Temp\cc0Y6K8j.s 			page 22


 781              		.section	.bss.hadc1,"aw",%nobits
 782              		.align	2
 783              		.set	.LANCHOR0,. + 0
 786              	hadc1:
 787 0000 00000000 		.space	80
 787      00000000 
 787      00000000 
 787      00000000 
 787      00000000 
 788              		.section	.bss.hadc2,"aw",%nobits
 789              		.align	2
 790              		.set	.LANCHOR1,. + 0
 793              	hadc2:
 794 0000 00000000 		.space	80
 794      00000000 
 794      00000000 
 794      00000000 
 794      00000000 
 795              		.section	.bss.hdma_adc1,"aw",%nobits
 796              		.align	2
 797              		.set	.LANCHOR3,. + 0
 800              	hdma_adc1:
 801 0000 00000000 		.space	68
 801      00000000 
 801      00000000 
 801      00000000 
 801      00000000 
 802              		.section	.bss.hdma_adc2,"aw",%nobits
 803              		.align	2
 804              		.set	.LANCHOR4,. + 0
 807              	hdma_adc2:
 808 0000 00000000 		.space	68
 808      00000000 
 808      00000000 
 808      00000000 
 808      00000000 
 809              		.text
 810              	.Letext0:
 811              		.file 2 "c:\\tools\\gcc-arm-none-eabi-10.3-2021.10\\arm-none-eabi\\include\\machine\\_default_type
 812              		.file 3 "c:\\tools\\gcc-arm-none-eabi-10.3-2021.10\\arm-none-eabi\\include\\sys\\_stdint.h"
 813              		.file 4 "Drivers/CMSIS/Device/ST/STM32F3xx/Include/stm32f303x8.h"
 814              		.file 5 "Drivers/CMSIS/Device/ST/STM32F3xx/Include/stm32f3xx.h"
 815              		.file 6 "Drivers/STM32F3xx_HAL_Driver/Inc/stm32f3xx_hal_def.h"
 816              		.file 7 "Drivers/STM32F3xx_HAL_Driver/Inc/stm32f3xx_hal_gpio.h"
 817              		.file 8 "Drivers/STM32F3xx_HAL_Driver/Inc/stm32f3xx_hal_dma.h"
 818              		.file 9 "Drivers/STM32F3xx_HAL_Driver/Inc/stm32f3xx_hal_adc_ex.h"
 819              		.file 10 "Drivers/STM32F3xx_HAL_Driver/Inc/stm32f3xx_hal_adc.h"
 820              		.file 11 "Core/Inc/adc.h"
 821              		.file 12 "Core/Inc/main.h"
ARM GAS  C:\Users\User\AppData\Local\Temp\cc0Y6K8j.s 			page 23

