ARM GAS  C:\Users\User\AppData\Local\Temp\ccHVLSih.s 			page 1


   1              		.cpu cortex-m4
   2              		.arch armv7e-m
   3              		.fpu fpv4-sp-d16
   4              		.eabi_attribute 27, 1
   5              		.eabi_attribute 28, 1
   6              		.eabi_attribute 20, 1
   7              		.eabi_attribute 21, 1
   8              		.eabi_attribute 23, 3
   9              		.eabi_attribute 24, 1
  10              		.eabi_attribute 25, 1
  11              		.eabi_attribute 26, 1
  12              		.eabi_attribute 30, 1
  13              		.eabi_attribute 34, 1
  14              		.eabi_attribute 18, 4
  15              		.file	"main.c"
  16              		.text
  17              	.Ltext0:
  18              		.cfi_sections	.debug_frame
  19              		.section	.text.SensUp,"ax",%progbits
  20              		.align	1
  21              		.global	SensUp
  22              		.syntax unified
  23              		.thumb
  24              		.thumb_func
  26              	SensUp:
  27              	.LFB126:
  28              		.file 1 "Core/Src/main.c"
   1:Core/Src/main.c **** /* USER CODE BEGIN Header */
   2:Core/Src/main.c **** /**
   3:Core/Src/main.c ****   ******************************************************************************
   4:Core/Src/main.c ****   * @file           : main.c
   5:Core/Src/main.c ****   * @brief          : Main program body
   6:Core/Src/main.c ****   ******************************************************************************
   7:Core/Src/main.c ****   * @attention
   8:Core/Src/main.c ****   *
   9:Core/Src/main.c ****   * Copyright (c) 2023 STMicroelectronics.
  10:Core/Src/main.c ****   * All rights reserved.
  11:Core/Src/main.c ****   *
  12:Core/Src/main.c ****   * This software is licensed under terms that can be found in the LICENSE file
  13:Core/Src/main.c ****   * in the root directory of this software component.
  14:Core/Src/main.c ****   * If no LICENSE file comes with this software, it is provided AS-IS.
  15:Core/Src/main.c ****   *
  16:Core/Src/main.c ****   ******************************************************************************
  17:Core/Src/main.c ****   */
  18:Core/Src/main.c **** /* USER CODE END Header */
  19:Core/Src/main.c **** /* Includes ------------------------------------------------------------------*/
  20:Core/Src/main.c **** #include "main.h"
  21:Core/Src/main.c **** #include "adc.h"
  22:Core/Src/main.c **** #include "dma.h"
  23:Core/Src/main.c **** #include "tim.h"
  24:Core/Src/main.c **** #include "usart.h"
  25:Core/Src/main.c **** #include "gpio.h"
  26:Core/Src/main.c **** 
  27:Core/Src/main.c **** /* Private includes ----------------------------------------------------------*/
  28:Core/Src/main.c **** /* USER CODE BEGIN Includes */
  29:Core/Src/main.c **** #include <stdio.h>
  30:Core/Src/main.c **** #ifdef __GNUC__
ARM GAS  C:\Users\User\AppData\Local\Temp\ccHVLSih.s 			page 2


  31:Core/Src/main.c **** 	#define PUTCHAR_PROTOTYPE int __io_putchar(double analog2)
  32:Core/Src/main.c **** #else
  33:Core/Src/main.c **** 	#define PUTCHAR_PROTOTYPE int fputc(int analog2, FILE *f)
  34:Core/Src/main.c **** #endif /*__GNUC__*/
  35:Core/Src/main.c **** 
  36:Core/Src/main.c **** /* USER CODE END Includes */
  37:Core/Src/main.c **** 
  38:Core/Src/main.c **** /* Private typedef -----------------------------------------------------------*/
  39:Core/Src/main.c **** /* USER CODE BEGIN PTD */
  40:Core/Src/main.c **** 
  41:Core/Src/main.c **** /* USER CODE END PTD */
  42:Core/Src/main.c **** 
  43:Core/Src/main.c **** /* Private define ------------------------------------------------------------*/
  44:Core/Src/main.c **** /* USER CODE BEGIN PD */
  45:Core/Src/main.c **** /* USER CODE END PD */
  46:Core/Src/main.c **** 
  47:Core/Src/main.c **** /* Private macro -------------------------------------------------------------*/
  48:Core/Src/main.c **** /* USER CODE BEGIN PM */
  49:Core/Src/main.c **** 
  50:Core/Src/main.c **** /* USER CODE END PM */
  51:Core/Src/main.c **** 
  52:Core/Src/main.c **** /* Private variables ---------------------------------------------------------*/
  53:Core/Src/main.c **** 
  54:Core/Src/main.c **** /* USER CODE BEGIN PV */
  55:Core/Src/main.c **** 
  56:Core/Src/main.c **** /* USER CODE END PV */
  57:Core/Src/main.c **** 
  58:Core/Src/main.c **** /* Private function prototypes -----------------------------------------------*/
  59:Core/Src/main.c **** void SystemClock_Config(void);
  60:Core/Src/main.c **** /* USER CODE BEGIN PFP */
  61:Core/Src/main.c **** 
  62:Core/Src/main.c **** /* USER CODE END PFP */
  63:Core/Src/main.c **** 
  64:Core/Src/main.c **** /* Private user code ---------------------------------------------------------*/
  65:Core/Src/main.c **** /* USER CODE BEGIN 0 */
  66:Core/Src/main.c **** 
  67:Core/Src/main.c **** void    init(void);        
  68:Core/Src/main.c **** void    led_out(void);      
  69:Core/Src/main.c **** void    MotorCtrl(void);    
  70:Core/Src/main.c **** void    LineTrace(void);    
  71:Core/Src/main.c **** void    SensUp(void);       
  72:Core/Src/main.c **** void    Side_SensUp(void);       
  73:Core/Src/main.c **** int     GetVol(void);       
  74:Core/Src/main.c **** void    Stop(void);
  75:Core/Src/main.c **** 
  76:Core/Src/main.c **** int timer1=0;
  77:Core/Src/main.c **** int ledval=1;
  78:Core/Src/main.c **** int MotorL_Rev=0,MotorR_Rev=0;
  79:Core/Src/main.c **** int MotorL=0,MotorR=0;
  80:Core/Src/main.c **** int ErrFlg=0;
  81:Core/Src/main.c **** int SensValBuf=0;
  82:Core/Src/main.c **** int SensorR,SensorL;
  83:Core/Src/main.c **** int Side_SensorR,Side_SensorL;
  84:Core/Src/main.c **** int Curve_Sensor;
  85:Core/Src/main.c **** int SensR[9],SensL[9];
  86:Core/Src/main.c **** int Side_SensR[9],Side_SensL[9],Curve_Sens[9];
  87:Core/Src/main.c **** int Flag=0,FlagL=0,FlagR=0;
ARM GAS  C:\Users\User\AppData\Local\Temp\ccHVLSih.s 			page 3


  88:Core/Src/main.c **** double PGainCLB=0;
  89:Core/Src/main.c **** double IGainCLB=0;
  90:Core/Src/main.c **** double DGainCLB=0;
  91:Core/Src/main.c **** double SensVal_I,SensVal_IBuf=0;
  92:Core/Src/main.c **** char turnFlg=0;
  93:Core/Src/main.c **** char timeFlg=0;
  94:Core/Src/main.c **** char stopFlg=0;
  95:Core/Src/main.c **** char Stime=0;
  96:Core/Src/main.c **** int CommSpeed=9500;
  97:Core/Src/main.c **** char buf[1];
  98:Core/Src/main.c **** uint16_t analog1[2];
  99:Core/Src/main.c **** uint16_t analog2[3];
 100:Core/Src/main.c **** uint8_t button_state = 1;
 101:Core/Src/main.c **** 
 102:Core/Src/main.c **** /*void HAL_UART_RxCpltCallback(UART_HandleTypeDef *huart){
 103:Core/Src/main.c **** 	HAL_UART_Transmit_IT(&huart2, (uint16_t *)analog2, sizeof(analog2)/sizeof(analog2[0]));
 104:Core/Src/main.c **** 	HAL_UART_Receive_IT(&huart2, (uint16_t *)analog2, sizeof(analog2)/sizeof(analog2[0]));
 105:Core/Src/main.c ****  }*/
 106:Core/Src/main.c **** 
 107:Core/Src/main.c **** void SensUp(void){
  29              		.loc 1 107 18 view -0
  30              		.cfi_startproc
  31              		@ args = 0, pretend = 0, frame = 0
  32              		@ frame_needed = 0, uses_anonymous_args = 0
  33              		@ link register save eliminated.
  34 0000 10B4     		push	{r4}
  35              	.LCFI0:
  36              		.cfi_def_cfa_offset 4
  37              		.cfi_offset 4, -4
 108:Core/Src/main.c **** int i,j,SensBuf;
  38              		.loc 1 108 1 view .LVU1
 109:Core/Src/main.c ****   for (i = 0; i < 9; i++) {
  39              		.loc 1 109 3 view .LVU2
  40              	.LVL0:
  41              		.loc 1 109 10 is_stmt 0 view .LVU3
  42 0002 4FF0000C 		mov	ip, #0
  43              		.loc 1 109 3 view .LVU4
  44 0006 1EE0     		b	.L2
  45              	.LVL1:
  46              	.L4:
 107:Core/Src/main.c **** int i,j,SensBuf;
  47              		.loc 1 107 18 discriminator 1 view .LVU5
  48 0008 1346     		mov	r3, r2
  49              	.LVL2:
  50              	.L6:
 110:Core/Src/main.c ****     for (j = 9; j > i; j--) {  
  51              		.loc 1 110 17 is_stmt 1 discriminator 1 view .LVU6
  52              		.loc 1 110 5 is_stmt 0 discriminator 1 view .LVU7
  53 000a 9C45     		cmp	ip, r3
  54 000c 19DA     		bge	.L9
 111:Core/Src/main.c ****       if (SensR[j-1] > SensR[j]) {
  55              		.loc 1 111 7 is_stmt 1 view .LVU8
  56              		.loc 1 111 18 is_stmt 0 view .LVU9
  57 000e 5A1E     		subs	r2, r3, #1
  58              		.loc 1 111 16 view .LVU10
  59 0010 1549     		ldr	r1, .L11
  60 0012 51F82200 		ldr	r0, [r1, r2, lsl #2]
ARM GAS  C:\Users\User\AppData\Local\Temp\ccHVLSih.s 			page 4


  61              		.loc 1 111 29 view .LVU11
  62 0016 51F82310 		ldr	r1, [r1, r3, lsl #2]
  63              		.loc 1 111 10 view .LVU12
  64 001a 8842     		cmp	r0, r1
  65 001c 04DD     		ble	.L3
 112:Core/Src/main.c ****         SensBuf = SensR[j-1];
  66              		.loc 1 112 9 is_stmt 1 view .LVU13
  67              	.LVL3:
 113:Core/Src/main.c ****         SensR[j-1] = SensR[j];
  68              		.loc 1 113 9 view .LVU14
  69              		.loc 1 113 20 is_stmt 0 view .LVU15
  70 001e 124C     		ldr	r4, .L11
  71 0020 44F82210 		str	r1, [r4, r2, lsl #2]
 114:Core/Src/main.c ****         SensR[j] = SensBuf;
  72              		.loc 1 114 9 is_stmt 1 view .LVU16
  73              		.loc 1 114 18 is_stmt 0 view .LVU17
  74 0024 44F82300 		str	r0, [r4, r3, lsl #2]
  75              	.LVL4:
  76              	.L3:
 115:Core/Src/main.c ****       }
 116:Core/Src/main.c ****       if (SensL[j-1] > SensL[j]) {
  77              		.loc 1 116 7 is_stmt 1 view .LVU18
  78              		.loc 1 116 16 is_stmt 0 view .LVU19
  79 0028 1049     		ldr	r1, .L11+4
  80 002a 51F82200 		ldr	r0, [r1, r2, lsl #2]
  81              		.loc 1 116 29 view .LVU20
  82 002e 51F82310 		ldr	r1, [r1, r3, lsl #2]
  83              		.loc 1 116 10 view .LVU21
  84 0032 8842     		cmp	r0, r1
  85 0034 E8DD     		ble	.L4
 117:Core/Src/main.c ****         SensBuf = SensL[j-1];
  86              		.loc 1 117 9 is_stmt 1 view .LVU22
  87              	.LVL5:
 118:Core/Src/main.c ****         SensL[j-1] = SensL[j];
  88              		.loc 1 118 9 view .LVU23
  89              		.loc 1 118 20 is_stmt 0 view .LVU24
  90 0036 0D4C     		ldr	r4, .L11+4
  91 0038 44F82210 		str	r1, [r4, r2, lsl #2]
 119:Core/Src/main.c ****         SensL[j] = SensBuf;
  92              		.loc 1 119 9 is_stmt 1 view .LVU25
  93              		.loc 1 119 18 is_stmt 0 view .LVU26
  94 003c 44F82300 		str	r0, [r4, r3, lsl #2]
  95 0040 E2E7     		b	.L4
  96              	.LVL6:
  97              	.L9:
 109:Core/Src/main.c ****     for (j = 9; j > i; j--) {  
  98              		.loc 1 109 22 is_stmt 1 discriminator 2 view .LVU27
 109:Core/Src/main.c ****     for (j = 9; j > i; j--) {  
  99              		.loc 1 109 23 is_stmt 0 discriminator 2 view .LVU28
 100 0042 0CF1010C 		add	ip, ip, #1
 101              	.LVL7:
 102              	.L2:
 109:Core/Src/main.c ****     for (j = 9; j > i; j--) {  
 103              		.loc 1 109 15 is_stmt 1 discriminator 1 view .LVU29
 109:Core/Src/main.c ****     for (j = 9; j > i; j--) {  
 104              		.loc 1 109 3 is_stmt 0 discriminator 1 view .LVU30
 105 0046 BCF1080F 		cmp	ip, #8
ARM GAS  C:\Users\User\AppData\Local\Temp\ccHVLSih.s 			page 5


 106 004a 01DC     		bgt	.L10
 110:Core/Src/main.c ****       if (SensR[j-1] > SensR[j]) {
 107              		.loc 1 110 12 view .LVU31
 108 004c 0923     		movs	r3, #9
 109 004e DCE7     		b	.L6
 110              	.L10:
 120:Core/Src/main.c ****       }
 121:Core/Src/main.c ****     }
 122:Core/Src/main.c ****   }
 123:Core/Src/main.c **** 
 124:Core/Src/main.c ****     SensorR = SensR[5];
 111              		.loc 1 124 5 is_stmt 1 view .LVU32
 112              		.loc 1 124 20 is_stmt 0 view .LVU33
 113 0050 054B     		ldr	r3, .L11
 114 0052 5A69     		ldr	r2, [r3, #20]
 115              		.loc 1 124 13 view .LVU34
 116 0054 064B     		ldr	r3, .L11+8
 117 0056 1A60     		str	r2, [r3]
 125:Core/Src/main.c ****     SensorL = SensL[5];
 118              		.loc 1 125 5 is_stmt 1 view .LVU35
 119              		.loc 1 125 20 is_stmt 0 view .LVU36
 120 0058 044B     		ldr	r3, .L11+4
 121 005a 5A69     		ldr	r2, [r3, #20]
 122              		.loc 1 125 13 view .LVU37
 123 005c 054B     		ldr	r3, .L11+12
 124 005e 1A60     		str	r2, [r3]
 126:Core/Src/main.c ****     }
 125              		.loc 1 126 5 view .LVU38
 126 0060 5DF8044B 		ldr	r4, [sp], #4
 127              	.LCFI1:
 128              		.cfi_restore 4
 129              		.cfi_def_cfa_offset 0
 130 0064 7047     		bx	lr
 131              	.L12:
 132 0066 00BF     		.align	2
 133              	.L11:
 134 0068 00000000 		.word	.LANCHOR0
 135 006c 00000000 		.word	.LANCHOR1
 136 0070 00000000 		.word	.LANCHOR2
 137 0074 00000000 		.word	.LANCHOR3
 138              		.cfi_endproc
 139              	.LFE126:
 141              		.section	.text.Side_SensUp,"ax",%progbits
 142              		.align	1
 143              		.global	Side_SensUp
 144              		.syntax unified
 145              		.thumb
 146              		.thumb_func
 148              	Side_SensUp:
 149              	.LFB127:
 127:Core/Src/main.c **** 
 128:Core/Src/main.c **** void Side_SensUp(void){
 150              		.loc 1 128 23 is_stmt 1 view -0
 151              		.cfi_startproc
 152              		@ args = 0, pretend = 0, frame = 0
 153              		@ frame_needed = 0, uses_anonymous_args = 0
 154              		@ link register save eliminated.
ARM GAS  C:\Users\User\AppData\Local\Temp\ccHVLSih.s 			page 6


 155 0000 10B4     		push	{r4}
 156              	.LCFI2:
 157              		.cfi_def_cfa_offset 4
 158              		.cfi_offset 4, -4
 129:Core/Src/main.c **** int i,j,Side_SensBuf;
 159              		.loc 1 129 1 view .LVU40
 130:Core/Src/main.c ****   for (i = 0; i < 9; i++) {
 160              		.loc 1 130 3 view .LVU41
 161              	.LVL8:
 162              		.loc 1 130 10 is_stmt 0 view .LVU42
 163 0002 4FF0000C 		mov	ip, #0
 164              		.loc 1 130 3 view .LVU43
 165 0006 2AE0     		b	.L14
 166              	.LVL9:
 167              	.L17:
 128:Core/Src/main.c **** int i,j,Side_SensBuf;
 168              		.loc 1 128 23 discriminator 1 view .LVU44
 169 0008 1346     		mov	r3, r2
 170              	.LVL10:
 171              	.L19:
 131:Core/Src/main.c ****     for (j = 9; j > i; j--) {
 172              		.loc 1 131 17 is_stmt 1 discriminator 1 view .LVU45
 173              		.loc 1 131 5 is_stmt 0 discriminator 1 view .LVU46
 174 000a 9C45     		cmp	ip, r3
 175 000c 25DA     		bge	.L22
 132:Core/Src/main.c ****       if (Side_SensR[j-1] > Side_SensR[j]) {
 176              		.loc 1 132 7 is_stmt 1 view .LVU47
 177              		.loc 1 132 23 is_stmt 0 view .LVU48
 178 000e 5A1E     		subs	r2, r3, #1
 179              		.loc 1 132 21 view .LVU49
 180 0010 1D49     		ldr	r1, .L24
 181 0012 51F82200 		ldr	r0, [r1, r2, lsl #2]
 182              		.loc 1 132 39 view .LVU50
 183 0016 51F82310 		ldr	r1, [r1, r3, lsl #2]
 184              		.loc 1 132 10 view .LVU51
 185 001a 8842     		cmp	r0, r1
 186 001c 04DD     		ble	.L15
 133:Core/Src/main.c ****         Side_SensBuf = Side_SensR[j-1];
 187              		.loc 1 133 9 is_stmt 1 view .LVU52
 188              	.LVL11:
 134:Core/Src/main.c ****         Side_SensR[j-1] = Side_SensR[j];
 189              		.loc 1 134 9 view .LVU53
 190              		.loc 1 134 25 is_stmt 0 view .LVU54
 191 001e 1A4C     		ldr	r4, .L24
 192 0020 44F82210 		str	r1, [r4, r2, lsl #2]
 135:Core/Src/main.c ****         Side_SensR[j] = Side_SensBuf;    
 193              		.loc 1 135 9 is_stmt 1 view .LVU55
 194              		.loc 1 135 23 is_stmt 0 view .LVU56
 195 0024 44F82300 		str	r0, [r4, r3, lsl #2]
 196              	.LVL12:
 197              	.L15:
 136:Core/Src/main.c ****       }
 137:Core/Src/main.c ****       if (Side_SensL[j-1] > Side_SensL[j]) {
 198              		.loc 1 137 7 is_stmt 1 view .LVU57
 199              		.loc 1 137 21 is_stmt 0 view .LVU58
 200 0028 1849     		ldr	r1, .L24+4
 201 002a 51F82200 		ldr	r0, [r1, r2, lsl #2]
ARM GAS  C:\Users\User\AppData\Local\Temp\ccHVLSih.s 			page 7


 202              		.loc 1 137 39 view .LVU59
 203 002e 51F82310 		ldr	r1, [r1, r3, lsl #2]
 204              		.loc 1 137 10 view .LVU60
 205 0032 8842     		cmp	r0, r1
 206 0034 04DD     		ble	.L16
 138:Core/Src/main.c ****         Side_SensBuf = Side_SensL[j-1];
 207              		.loc 1 138 9 is_stmt 1 view .LVU61
 208              	.LVL13:
 139:Core/Src/main.c ****         Side_SensL[j-1] = Side_SensL[j];
 209              		.loc 1 139 9 view .LVU62
 210              		.loc 1 139 25 is_stmt 0 view .LVU63
 211 0036 154C     		ldr	r4, .L24+4
 212 0038 44F82210 		str	r1, [r4, r2, lsl #2]
 140:Core/Src/main.c ****         Side_SensL[j] = Side_SensBuf;
 213              		.loc 1 140 9 is_stmt 1 view .LVU64
 214              		.loc 1 140 23 is_stmt 0 view .LVU65
 215 003c 44F82300 		str	r0, [r4, r3, lsl #2]
 216              	.LVL14:
 217              	.L16:
 141:Core/Src/main.c ****       }
 142:Core/Src/main.c ****       if (Curve_Sens[j-1] > Curve_Sens[j]) {
 218              		.loc 1 142 7 is_stmt 1 view .LVU66
 219              		.loc 1 142 21 is_stmt 0 view .LVU67
 220 0040 1349     		ldr	r1, .L24+8
 221 0042 51F82200 		ldr	r0, [r1, r2, lsl #2]
 222              		.loc 1 142 39 view .LVU68
 223 0046 51F82310 		ldr	r1, [r1, r3, lsl #2]
 224              		.loc 1 142 10 view .LVU69
 225 004a 8842     		cmp	r0, r1
 226 004c DCDD     		ble	.L17
 143:Core/Src/main.c ****         Side_SensBuf = Curve_Sens[j-1];
 227              		.loc 1 143 9 is_stmt 1 view .LVU70
 228              	.LVL15:
 144:Core/Src/main.c ****         Curve_Sens[j-1] = Curve_Sens[j];
 229              		.loc 1 144 9 view .LVU71
 230              		.loc 1 144 25 is_stmt 0 view .LVU72
 231 004e 104C     		ldr	r4, .L24+8
 232 0050 44F82210 		str	r1, [r4, r2, lsl #2]
 145:Core/Src/main.c ****         Curve_Sens[j] = Side_SensBuf;
 233              		.loc 1 145 9 is_stmt 1 view .LVU73
 234              		.loc 1 145 23 is_stmt 0 view .LVU74
 235 0054 44F82300 		str	r0, [r4, r3, lsl #2]
 236 0058 D6E7     		b	.L17
 237              	.LVL16:
 238              	.L22:
 130:Core/Src/main.c ****     for (j = 9; j > i; j--) {
 239              		.loc 1 130 22 is_stmt 1 discriminator 2 view .LVU75
 130:Core/Src/main.c ****     for (j = 9; j > i; j--) {
 240              		.loc 1 130 23 is_stmt 0 discriminator 2 view .LVU76
 241 005a 0CF1010C 		add	ip, ip, #1
 242              	.LVL17:
 243              	.L14:
 130:Core/Src/main.c ****     for (j = 9; j > i; j--) {
 244              		.loc 1 130 15 is_stmt 1 discriminator 1 view .LVU77
 130:Core/Src/main.c ****     for (j = 9; j > i; j--) {
 245              		.loc 1 130 3 is_stmt 0 discriminator 1 view .LVU78
 246 005e BCF1080F 		cmp	ip, #8
ARM GAS  C:\Users\User\AppData\Local\Temp\ccHVLSih.s 			page 8


 247 0062 01DC     		bgt	.L23
 131:Core/Src/main.c ****       if (Side_SensR[j-1] > Side_SensR[j]) {
 248              		.loc 1 131 12 view .LVU79
 249 0064 0923     		movs	r3, #9
 250 0066 D0E7     		b	.L19
 251              	.L23:
 146:Core/Src/main.c ****       }
 147:Core/Src/main.c ****     }
 148:Core/Src/main.c ****   }
 149:Core/Src/main.c ****     Side_SensorR = Side_SensR[5];
 252              		.loc 1 149 5 is_stmt 1 view .LVU80
 253              		.loc 1 149 30 is_stmt 0 view .LVU81
 254 0068 074B     		ldr	r3, .L24
 255 006a 5A69     		ldr	r2, [r3, #20]
 256              		.loc 1 149 18 view .LVU82
 257 006c 094B     		ldr	r3, .L24+12
 258 006e 1A60     		str	r2, [r3]
 150:Core/Src/main.c ****     Side_SensorL = Side_SensL[5];
 259              		.loc 1 150 5 is_stmt 1 view .LVU83
 260              		.loc 1 150 30 is_stmt 0 view .LVU84
 261 0070 064B     		ldr	r3, .L24+4
 262 0072 5A69     		ldr	r2, [r3, #20]
 263              		.loc 1 150 18 view .LVU85
 264 0074 084B     		ldr	r3, .L24+16
 265 0076 1A60     		str	r2, [r3]
 151:Core/Src/main.c ****     Curve_Sensor = Curve_Sens[5];
 266              		.loc 1 151 5 is_stmt 1 view .LVU86
 267              		.loc 1 151 30 is_stmt 0 view .LVU87
 268 0078 054B     		ldr	r3, .L24+8
 269 007a 5A69     		ldr	r2, [r3, #20]
 270              		.loc 1 151 18 view .LVU88
 271 007c 074B     		ldr	r3, .L24+20
 272 007e 1A60     		str	r2, [r3]
 152:Core/Src/main.c ****     }
 273              		.loc 1 152 5 view .LVU89
 274 0080 5DF8044B 		ldr	r4, [sp], #4
 275              	.LCFI3:
 276              		.cfi_restore 4
 277              		.cfi_def_cfa_offset 0
 278 0084 7047     		bx	lr
 279              	.L25:
 280 0086 00BF     		.align	2
 281              	.L24:
 282 0088 00000000 		.word	.LANCHOR4
 283 008c 00000000 		.word	.LANCHOR5
 284 0090 00000000 		.word	.LANCHOR6
 285 0094 00000000 		.word	.LANCHOR7
 286 0098 00000000 		.word	.LANCHOR8
 287 009c 00000000 		.word	.LANCHOR9
 288              		.cfi_endproc
 289              	.LFE127:
 291              		.section	.text.sensGet,"ax",%progbits
 292              		.align	1
 293              		.global	sensGet
 294              		.syntax unified
 295              		.thumb
 296              		.thumb_func
ARM GAS  C:\Users\User\AppData\Local\Temp\ccHVLSih.s 			page 9


 298              	sensGet:
 299              	.LFB128:
 153:Core/Src/main.c **** 
 154:Core/Src/main.c **** void sensGet(){
 300              		.loc 1 154 15 is_stmt 1 view -0
 301              		.cfi_startproc
 302              		@ args = 0, pretend = 0, frame = 0
 303              		@ frame_needed = 0, uses_anonymous_args = 0
 304              		@ link register save eliminated.
 305 0000 10B4     		push	{r4}
 306              	.LCFI4:
 307              		.cfi_def_cfa_offset 4
 308              		.cfi_offset 4, -4
 155:Core/Src/main.c ****     if(Stime >= 9) {
 309              		.loc 1 155 5 view .LVU91
 310              		.loc 1 155 14 is_stmt 0 view .LVU92
 311 0002 124B     		ldr	r3, .L29
 312 0004 1B78     		ldrb	r3, [r3]	@ zero_extendqisi2
 313              		.loc 1 155 7 view .LVU93
 314 0006 082B     		cmp	r3, #8
 315 0008 02D9     		bls	.L27
 156:Core/Src/main.c ****         Stime=0;
 316              		.loc 1 156 9 is_stmt 1 view .LVU94
 317              		.loc 1 156 14 is_stmt 0 view .LVU95
 318 000a 104B     		ldr	r3, .L29
 319 000c 0022     		movs	r2, #0
 320 000e 1A70     		strb	r2, [r3]
 321              	.L27:
 157:Core/Src/main.c ****         } 
 158:Core/Src/main.c ****     SensR[Stime] = analog1[1];
 322              		.loc 1 158 5 is_stmt 1 view .LVU96
 323              		.loc 1 158 10 is_stmt 0 view .LVU97
 324 0010 0E49     		ldr	r1, .L29
 325 0012 0B78     		ldrb	r3, [r1]	@ zero_extendqisi2
 326              		.loc 1 158 27 view .LVU98
 327 0014 0E4A     		ldr	r2, .L29+4
 328 0016 5488     		ldrh	r4, [r2, #2]
 329              		.loc 1 158 18 view .LVU99
 330 0018 0E48     		ldr	r0, .L29+8
 331 001a 40F82340 		str	r4, [r0, r3, lsl #2]
 159:Core/Src/main.c ****     SensL[Stime] = analog1[0];
 332              		.loc 1 159 5 is_stmt 1 view .LVU100
 333              		.loc 1 159 27 is_stmt 0 view .LVU101
 334 001e 1088     		ldrh	r0, [r2]
 335              		.loc 1 159 18 view .LVU102
 336 0020 0D4A     		ldr	r2, .L29+12
 337 0022 42F82300 		str	r0, [r2, r3, lsl #2]
 160:Core/Src/main.c ****     Side_SensL[Stime] = analog2[1];
 338              		.loc 1 160 5 is_stmt 1 view .LVU103
 339              		.loc 1 160 32 is_stmt 0 view .LVU104
 340 0026 0D4A     		ldr	r2, .L29+16
 341 0028 5488     		ldrh	r4, [r2, #2]
 342              		.loc 1 160 23 view .LVU105
 343 002a 0D48     		ldr	r0, .L29+20
 344 002c 40F82340 		str	r4, [r0, r3, lsl #2]
 161:Core/Src/main.c ****     Side_SensR[Stime] = analog2[2];
 345              		.loc 1 161 5 is_stmt 1 view .LVU106
ARM GAS  C:\Users\User\AppData\Local\Temp\ccHVLSih.s 			page 10


 346              		.loc 1 161 32 is_stmt 0 view .LVU107
 347 0030 9488     		ldrh	r4, [r2, #4]
 348              		.loc 1 161 23 view .LVU108
 349 0032 0C48     		ldr	r0, .L29+24
 350 0034 40F82340 		str	r4, [r0, r3, lsl #2]
 162:Core/Src/main.c ****     Curve_Sens[Stime] = analog2[0];
 351              		.loc 1 162 5 is_stmt 1 view .LVU109
 352              		.loc 1 162 32 is_stmt 0 view .LVU110
 353 0038 1088     		ldrh	r0, [r2]
 354              		.loc 1 162 23 view .LVU111
 355 003a 0B4A     		ldr	r2, .L29+28
 356 003c 42F82300 		str	r0, [r2, r3, lsl #2]
 163:Core/Src/main.c ****     Stime++;
 357              		.loc 1 163 5 is_stmt 1 view .LVU112
 358              		.loc 1 163 10 is_stmt 0 view .LVU113
 359 0040 0133     		adds	r3, r3, #1
 360 0042 0B70     		strb	r3, [r1]
 164:Core/Src/main.c ****     }  
 361              		.loc 1 164 5 view .LVU114
 362 0044 5DF8044B 		ldr	r4, [sp], #4
 363              	.LCFI5:
 364              		.cfi_restore 4
 365              		.cfi_def_cfa_offset 0
 366 0048 7047     		bx	lr
 367              	.L30:
 368 004a 00BF     		.align	2
 369              	.L29:
 370 004c 00000000 		.word	.LANCHOR10
 371 0050 00000000 		.word	.LANCHOR11
 372 0054 00000000 		.word	.LANCHOR0
 373 0058 00000000 		.word	.LANCHOR1
 374 005c 00000000 		.word	.LANCHOR12
 375 0060 00000000 		.word	.LANCHOR5
 376 0064 00000000 		.word	.LANCHOR4
 377 0068 00000000 		.word	.LANCHOR6
 378              		.cfi_endproc
 379              	.LFE128:
 381              		.global	__aeabi_i2d
 382              		.global	__aeabi_dadd
 383              		.global	__aeabi_dcmpge
 384              		.global	__aeabi_dcmple
 385              		.global	__aeabi_dmul
 386              		.global	__aeabi_dsub
 387              		.global	__aeabi_ddiv
 388              		.global	__aeabi_d2iz
 389              		.section	.text.LineTrace,"ax",%progbits
 390              		.align	1
 391              		.global	LineTrace
 392              		.syntax unified
 393              		.thumb
 394              		.thumb_func
 396              	LineTrace:
 397              	.LFB129:
 165:Core/Src/main.c **** void LineTrace(void){
 398              		.loc 1 165 21 is_stmt 1 view -0
 399              		.cfi_startproc
 400              		@ args = 0, pretend = 0, frame = 0
ARM GAS  C:\Users\User\AppData\Local\Temp\ccHVLSih.s 			page 11


 401              		@ frame_needed = 0, uses_anonymous_args = 0
 402 0000 2DE9F84F 		push	{r3, r4, r5, r6, r7, r8, r9, r10, fp, lr}
 403              	.LCFI6:
 404              		.cfi_def_cfa_offset 40
 405              		.cfi_offset 3, -40
 406              		.cfi_offset 4, -36
 407              		.cfi_offset 5, -32
 408              		.cfi_offset 6, -28
 409              		.cfi_offset 7, -24
 410              		.cfi_offset 8, -20
 411              		.cfi_offset 9, -16
 412              		.cfi_offset 10, -12
 413              		.cfi_offset 11, -8
 414              		.cfi_offset 14, -4
 166:Core/Src/main.c ****   int SensVal,SensVal_D;
 415              		.loc 1 166 3 view .LVU116
 167:Core/Src/main.c ****   double PGain=65.0,IGain=0.000001,DGain=0.0;
 416              		.loc 1 167 3 view .LVU117
 417              	.LVL18:
 168:Core/Src/main.c ****   SensVal = SensorR - SensorL;
 418              		.loc 1 168 3 view .LVU118
 419              		.loc 1 168 21 is_stmt 0 view .LVU119
 420 0004 6C4B     		ldr	r3, .L47+32
 421 0006 1C68     		ldr	r4, [r3]
 422 0008 6C4B     		ldr	r3, .L47+36
 423 000a 1B68     		ldr	r3, [r3]
 424              		.loc 1 168 11 view .LVU120
 425 000c E41A     		subs	r4, r4, r3
 426              	.LVL19:
 169:Core/Src/main.c ****   if(stopFlg>=2)CommSpeed=0;
 427              		.loc 1 169 3 is_stmt 1 view .LVU121
 428              		.loc 1 169 13 is_stmt 0 view .LVU122
 429 000e 6C4B     		ldr	r3, .L47+40
 430 0010 1B78     		ldrb	r3, [r3]	@ zero_extendqisi2
 431              		.loc 1 169 5 view .LVU123
 432 0012 012B     		cmp	r3, #1
 433 0014 02D9     		bls	.L32
 434              		.loc 1 169 17 is_stmt 1 discriminator 1 view .LVU124
 435              		.loc 1 169 26 is_stmt 0 discriminator 1 view .LVU125
 436 0016 6B4B     		ldr	r3, .L47+44
 437 0018 0022     		movs	r2, #0
 438 001a 1A60     		str	r2, [r3]
 439              	.L32:
 170:Core/Src/main.c ****   if(SensVal <= 0 && !turnFlg){       
 440              		.loc 1 170 3 is_stmt 1 view .LVU126
 441              		.loc 1 170 5 is_stmt 0 view .LVU127
 442 001c 002C     		cmp	r4, #0
 443 001e 40F3A480 		ble	.L44
 444              	.L33:
 171:Core/Src/main.c ****     turnFlg=1;
 172:Core/Src/main.c ****     SensVal_I = 0;
 173:Core/Src/main.c ****   }else if (SensVal >= 0 && turnFlg){//turnR
 445              		.loc 1 173 9 is_stmt 1 view .LVU128
 446              		.loc 1 173 12 is_stmt 0 view .LVU129
 447 0022 002C     		cmp	r4, #0
 448 0024 0ADB     		blt	.L34
 449              		.loc 1 173 26 discriminator 1 view .LVU130
ARM GAS  C:\Users\User\AppData\Local\Temp\ccHVLSih.s 			page 12


 450 0026 684B     		ldr	r3, .L47+48
 451 0028 1B78     		ldrb	r3, [r3]	@ zero_extendqisi2
 452 002a 3BB1     		cbz	r3, .L34
 174:Core/Src/main.c ****     turnFlg=0;
 453              		.loc 1 174 5 is_stmt 1 view .LVU131
 454              		.loc 1 174 12 is_stmt 0 view .LVU132
 455 002c 664B     		ldr	r3, .L47+48
 456 002e 0022     		movs	r2, #0
 457 0030 1A70     		strb	r2, [r3]
 175:Core/Src/main.c ****     SensVal_I = 0;
 458              		.loc 1 175 5 is_stmt 1 view .LVU133
 459              		.loc 1 175 15 is_stmt 0 view .LVU134
 460 0032 664B     		ldr	r3, .L47+52
 461 0034 0020     		movs	r0, #0
 462 0036 0021     		movs	r1, #0
 463 0038 C3E90001 		strd	r0, [r3]
 464              	.L34:
 176:Core/Src/main.c ****   }
 177:Core/Src/main.c ****   SensVal_I = SensVal_I + SensVal;     
 465              		.loc 1 177 3 is_stmt 1 view .LVU135
 466              		.loc 1 177 25 is_stmt 0 view .LVU136
 467 003c 2046     		mov	r0, r4
 468 003e FFF7FEFF 		bl	__aeabi_i2d
 469              	.LVL20:
 470 0042 8046     		mov	r8, r0
 471 0044 8946     		mov	r9, r1
 472 0046 614D     		ldr	r5, .L47+52
 473 0048 D5E90023 		ldrd	r2, [r5]
 474 004c FFF7FEFF 		bl	__aeabi_dadd
 475              	.LVL21:
 476 0050 0646     		mov	r6, r0
 477 0052 0F46     		mov	r7, r1
 478              		.loc 1 177 13 view .LVU137
 479 0054 C5E90067 		strd	r6, [r5]
 178:Core/Src/main.c ****   SensVal_IBuf = SensVal_IBuf + SensVal;
 480              		.loc 1 178 3 is_stmt 1 view .LVU138
 481              		.loc 1 178 31 is_stmt 0 view .LVU139
 482 0058 5D4D     		ldr	r5, .L47+56
 483 005a D5E90023 		ldrd	r2, [r5]
 484 005e 4046     		mov	r0, r8
 485 0060 4946     		mov	r1, r9
 486 0062 FFF7FEFF 		bl	__aeabi_dadd
 487              	.LVL22:
 488 0066 8246     		mov	r10, r0
 489 0068 8B46     		mov	fp, r1
 490              		.loc 1 178 16 view .LVU140
 491 006a C5E900AB 		strd	r10, [r5]
 179:Core/Src/main.c ****   if(SensVal_I >= 100000000) SensVal_I = 100000000;
 492              		.loc 1 179 3 is_stmt 1 view .LVU141
 493              		.loc 1 179 5 is_stmt 0 view .LVU142
 494 006e 4AA3     		adr	r3, .L47
 495 0070 D3E90023 		ldrd	r2, [r3]
 496 0074 3046     		mov	r0, r6
 497 0076 3946     		mov	r1, r7
 498 0078 FFF7FEFF 		bl	__aeabi_dcmpge
 499              	.LVL23:
 500 007c 28B1     		cbz	r0, .L35
ARM GAS  C:\Users\User\AppData\Local\Temp\ccHVLSih.s 			page 13


 501              		.loc 1 179 30 is_stmt 1 discriminator 1 view .LVU143
 502              		.loc 1 179 40 is_stmt 0 discriminator 1 view .LVU144
 503 007e 534B     		ldr	r3, .L47+52
 504 0080 45A1     		adr	r1, .L47
 505 0082 D1E90001 		ldrd	r0, [r1]
 506 0086 C3E90001 		strd	r0, [r3]
 507              	.L35:
 180:Core/Src/main.c ****   if(SensVal_I <= (-100000000)) SensVal_I = (-100000000);
 508              		.loc 1 180 3 is_stmt 1 view .LVU145
 509              		.loc 1 180 5 is_stmt 0 view .LVU146
 510 008a 45A3     		adr	r3, .L47+8
 511 008c D3E90023 		ldrd	r2, [r3]
 512 0090 4E49     		ldr	r1, .L47+52
 513 0092 D1E90001 		ldrd	r0, [r1]
 514 0096 FFF7FEFF 		bl	__aeabi_dcmple
 515              	.LVL24:
 516 009a 28B1     		cbz	r0, .L37
 517              		.loc 1 180 33 is_stmt 1 discriminator 1 view .LVU147
 518              		.loc 1 180 43 is_stmt 0 discriminator 1 view .LVU148
 519 009c 4B4B     		ldr	r3, .L47+52
 520 009e 40A1     		adr	r1, .L47+8
 521 00a0 D1E90001 		ldrd	r0, [r1]
 522 00a4 C3E90001 		strd	r0, [r3]
 523              	.L37:
 181:Core/Src/main.c ****   SensVal_D = SensValBuf - SensVal;       //左右のセンサー値の差の変化
 524              		.loc 1 181 3 is_stmt 1 view .LVU149
 525              		.loc 1 181 26 is_stmt 0 view .LVU150
 526 00a8 4A4B     		ldr	r3, .L47+60
 527 00aa 1D68     		ldr	r5, [r3]
 528              		.loc 1 181 13 view .LVU151
 529 00ac 2D1B     		subs	r5, r5, r4
 530              	.LVL25:
 182:Core/Src/main.c ****   SensValBuf = SensVal;
 531              		.loc 1 182 3 is_stmt 1 view .LVU152
 532              		.loc 1 182 14 is_stmt 0 view .LVU153
 533 00ae 1C60     		str	r4, [r3]
 183:Core/Src/main.c ****   MotorR = ((CommSpeed - ((SensVal * PGain)+(SensVal_I*IGain)-(SensVal_D*DGain)))/10); 
 534              		.loc 1 183 3 is_stmt 1 view .LVU154
 535              		.loc 1 183 24 is_stmt 0 view .LVU155
 536 00b0 444B     		ldr	r3, .L47+44
 537 00b2 1868     		ldr	r0, [r3]
 538 00b4 FFF7FEFF 		bl	__aeabi_i2d
 539              	.LVL26:
 540 00b8 0646     		mov	r6, r0
 541 00ba 0F46     		mov	r7, r1
 542              		.loc 1 183 36 view .LVU156
 543 00bc 0022     		movs	r2, #0
 544 00be 464B     		ldr	r3, .L47+64
 545 00c0 4046     		mov	r0, r8
 546 00c2 4946     		mov	r1, r9
 547 00c4 FFF7FEFF 		bl	__aeabi_dmul
 548              	.LVL27:
 549 00c8 8046     		mov	r8, r0
 550 00ca 8946     		mov	r9, r1
 551              		.loc 1 183 55 view .LVU157
 552 00cc 36A3     		adr	r3, .L47+16
 553 00ce D3E90023 		ldrd	r2, [r3]
ARM GAS  C:\Users\User\AppData\Local\Temp\ccHVLSih.s 			page 14


 554 00d2 3E49     		ldr	r1, .L47+52
 555 00d4 D1E90001 		ldrd	r0, [r1]
 556 00d8 FFF7FEFF 		bl	__aeabi_dmul
 557              	.LVL28:
 558 00dc 0246     		mov	r2, r0
 559 00de 0B46     		mov	r3, r1
 560              		.loc 1 183 44 view .LVU158
 561 00e0 4046     		mov	r0, r8
 562 00e2 4946     		mov	r1, r9
 563 00e4 FFF7FEFF 		bl	__aeabi_dadd
 564              	.LVL29:
 565 00e8 8046     		mov	r8, r0
 566 00ea 8946     		mov	r9, r1
 567              		.loc 1 183 73 view .LVU159
 568 00ec 2846     		mov	r0, r5
 569 00ee FFF7FEFF 		bl	__aeabi_i2d
 570              	.LVL30:
 571 00f2 0022     		movs	r2, #0
 572 00f4 0023     		movs	r3, #0
 573 00f6 FFF7FEFF 		bl	__aeabi_dmul
 574              	.LVL31:
 575 00fa 0246     		mov	r2, r0
 576 00fc 0B46     		mov	r3, r1
 577              		.loc 1 183 62 view .LVU160
 578 00fe 4046     		mov	r0, r8
 579 0100 4946     		mov	r1, r9
 580 0102 FFF7FEFF 		bl	__aeabi_dsub
 581              	.LVL32:
 582 0106 8046     		mov	r8, r0
 583 0108 8946     		mov	r9, r1
 584              		.loc 1 183 24 view .LVU161
 585 010a 0246     		mov	r2, r0
 586 010c 0B46     		mov	r3, r1
 587 010e 3046     		mov	r0, r6
 588 0110 3946     		mov	r1, r7
 589 0112 FFF7FEFF 		bl	__aeabi_dsub
 590              	.LVL33:
 591              		.loc 1 183 82 view .LVU162
 592 0116 0022     		movs	r2, #0
 593 0118 304B     		ldr	r3, .L47+68
 594 011a FFF7FEFF 		bl	__aeabi_ddiv
 595              	.LVL34:
 596              		.loc 1 183 10 view .LVU163
 597 011e FFF7FEFF 		bl	__aeabi_d2iz
 598              	.LVL35:
 599 0122 0446     		mov	r4, r0
 600              	.LVL36:
 601              		.loc 1 183 10 view .LVU164
 602 0124 2E4B     		ldr	r3, .L47+72
 603 0126 1860     		str	r0, [r3]
 184:Core/Src/main.c ****   if(MotorL < 0 ){
 604              		.loc 1 184 3 is_stmt 1 view .LVU165
 605              		.loc 1 184 13 is_stmt 0 view .LVU166
 606 0128 2E4B     		ldr	r3, .L47+76
 607 012a 1B68     		ldr	r3, [r3]
 608              		.loc 1 184 5 view .LVU167
 609 012c 002B     		cmp	r3, #0
ARM GAS  C:\Users\User\AppData\Local\Temp\ccHVLSih.s 			page 15


 610 012e 2ADB     		blt	.L45
 611              	.L39:
 185:Core/Src/main.c ****       MotorL = MotorL * (-1);
 186:Core/Src/main.c ****   }
 187:Core/Src/main.c ****   MotorL = ((CommSpeed + ((SensVal * PGain)+(SensVal_I*IGain)-(SensVal_D*DGain)))/10);
 612              		.loc 1 187 3 is_stmt 1 view .LVU168
 613              		.loc 1 187 24 is_stmt 0 view .LVU169
 614 0130 4246     		mov	r2, r8
 615 0132 4B46     		mov	r3, r9
 616 0134 3046     		mov	r0, r6
 617 0136 3946     		mov	r1, r7
 618 0138 FFF7FEFF 		bl	__aeabi_dadd
 619              	.LVL37:
 620              		.loc 1 187 82 view .LVU170
 621 013c 0022     		movs	r2, #0
 622 013e 274B     		ldr	r3, .L47+68
 623 0140 FFF7FEFF 		bl	__aeabi_ddiv
 624              	.LVL38:
 625              		.loc 1 187 10 view .LVU171
 626 0144 FFF7FEFF 		bl	__aeabi_d2iz
 627              	.LVL39:
 628 0148 264B     		ldr	r3, .L47+76
 629 014a 1860     		str	r0, [r3]
 188:Core/Src/main.c ****   if(MotorR < 0 ){
 630              		.loc 1 188 3 is_stmt 1 view .LVU172
 631              		.loc 1 188 5 is_stmt 0 view .LVU173
 632 014c 002C     		cmp	r4, #0
 633 014e 1EDB     		blt	.L46
 634              	.L40:
 189:Core/Src/main.c ****       MotorR = MotorR * (-1);
 190:Core/Src/main.c ****   }
 191:Core/Src/main.c ****   ledval = (SensVal_IBuf / (-100000));
 635              		.loc 1 191 3 is_stmt 1 view .LVU174
 636              		.loc 1 191 26 is_stmt 0 view .LVU175
 637 0150 17A3     		adr	r3, .L47+24
 638 0152 D3E90023 		ldrd	r2, [r3]
 639 0156 5046     		mov	r0, r10
 640 0158 5946     		mov	r1, fp
 641 015a FFF7FEFF 		bl	__aeabi_ddiv
 642              	.LVL40:
 643              		.loc 1 191 10 view .LVU176
 644 015e FFF7FEFF 		bl	__aeabi_d2iz
 645              	.LVL41:
 646 0162 214B     		ldr	r3, .L47+80
 647 0164 1860     		str	r0, [r3]
 192:Core/Src/main.c ****   //MotorR = int(CommSpeed - (SensVal * PGainCLB));
 193:Core/Src/main.c ****   //MotorL = int(CommSpeed + (SensVal * PGainCLB));
 194:Core/Src/main.c ****   }
 648              		.loc 1 194 3 view .LVU177
 649 0166 BDE8F88F 		pop	{r3, r4, r5, r6, r7, r8, r9, r10, fp, pc}
 650              	.LVL42:
 651              	.L44:
 170:Core/Src/main.c ****     turnFlg=1;
 652              		.loc 1 170 22 discriminator 1 view .LVU178
 653 016a 174B     		ldr	r3, .L47+48
 654 016c 1B78     		ldrb	r3, [r3]	@ zero_extendqisi2
 170:Core/Src/main.c ****     turnFlg=1;
ARM GAS  C:\Users\User\AppData\Local\Temp\ccHVLSih.s 			page 16


 655              		.loc 1 170 19 discriminator 1 view .LVU179
 656 016e 002B     		cmp	r3, #0
 657 0170 7FF457AF 		bne	.L33
 171:Core/Src/main.c ****     SensVal_I = 0;
 658              		.loc 1 171 5 is_stmt 1 view .LVU180
 171:Core/Src/main.c ****     SensVal_I = 0;
 659              		.loc 1 171 12 is_stmt 0 view .LVU181
 660 0174 144B     		ldr	r3, .L47+48
 661 0176 0122     		movs	r2, #1
 662 0178 1A70     		strb	r2, [r3]
 172:Core/Src/main.c ****   }else if (SensVal >= 0 && turnFlg){//turnR
 663              		.loc 1 172 5 is_stmt 1 view .LVU182
 172:Core/Src/main.c ****   }else if (SensVal >= 0 && turnFlg){//turnR
 664              		.loc 1 172 15 is_stmt 0 view .LVU183
 665 017a 144B     		ldr	r3, .L47+52
 666 017c 0020     		movs	r0, #0
 667 017e 0021     		movs	r1, #0
 668 0180 C3E90001 		strd	r0, [r3]
 669 0184 5AE7     		b	.L34
 670              	.LVL43:
 671              	.L45:
 185:Core/Src/main.c ****   }
 672              		.loc 1 185 7 is_stmt 1 view .LVU184
 185:Core/Src/main.c ****   }
 673              		.loc 1 185 23 is_stmt 0 view .LVU185
 674 0186 5B42     		rsbs	r3, r3, #0
 185:Core/Src/main.c ****   }
 675              		.loc 1 185 14 view .LVU186
 676 0188 164A     		ldr	r2, .L47+76
 677 018a 1360     		str	r3, [r2]
 678 018c D0E7     		b	.L39
 679              	.L46:
 189:Core/Src/main.c ****   }
 680              		.loc 1 189 7 is_stmt 1 view .LVU187
 189:Core/Src/main.c ****   }
 681              		.loc 1 189 23 is_stmt 0 view .LVU188
 682 018e 6442     		rsbs	r4, r4, #0
 189:Core/Src/main.c ****   }
 683              		.loc 1 189 14 view .LVU189
 684 0190 134B     		ldr	r3, .L47+72
 685 0192 1C60     		str	r4, [r3]
 686 0194 DCE7     		b	.L40
 687              	.L48:
 688 0196 00BF     		.align	3
 689              	.L47:
 690 0198 00000000 		.word	0
 691 019c 84D79741 		.word	1100470148
 692 01a0 00000000 		.word	0
 693 01a4 84D797C1 		.word	-1047013500
 694 01a8 8DEDB5A0 		.word	-1598689907
 695 01ac F7C6B03E 		.word	1051772663
 696 01b0 00000000 		.word	0
 697 01b4 006AF8C0 		.word	-1057461760
 698 01b8 00000000 		.word	.LANCHOR2
 699 01bc 00000000 		.word	.LANCHOR3
 700 01c0 00000000 		.word	.LANCHOR13
 701 01c4 00000000 		.word	.LANCHOR14
ARM GAS  C:\Users\User\AppData\Local\Temp\ccHVLSih.s 			page 17


 702 01c8 00000000 		.word	.LANCHOR15
 703 01cc 00000000 		.word	.LANCHOR16
 704 01d0 00000000 		.word	.LANCHOR17
 705 01d4 00000000 		.word	.LANCHOR18
 706 01d8 00405040 		.word	1079001088
 707 01dc 00002440 		.word	1076101120
 708 01e0 00000000 		.word	.LANCHOR19
 709 01e4 00000000 		.word	.LANCHOR20
 710 01e8 00000000 		.word	.LANCHOR21
 711              		.cfi_endproc
 712              	.LFE129:
 714              		.section	.text.stop,"ax",%progbits
 715              		.align	1
 716              		.global	stop
 717              		.syntax unified
 718              		.thumb
 719              		.thumb_func
 721              	stop:
 722              	.LFB130:
 195:Core/Src/main.c ****   /*void stop2(void){
 196:Core/Src/main.c ****     if(stopFlg==2)
 197:Core/Src/main.c ****   }*/
 198:Core/Src/main.c ****   void stop(void){
 723              		.loc 1 198 18 is_stmt 1 view -0
 724              		.cfi_startproc
 725              		@ args = 0, pretend = 0, frame = 0
 726              		@ frame_needed = 0, uses_anonymous_args = 0
 727              		@ link register save eliminated.
 199:Core/Src/main.c ****     if((Side_SensorL > 1600) && (Side_SensorR > 2000)){
 728              		.loc 1 199 5 view .LVU191
 729              		.loc 1 199 22 is_stmt 0 view .LVU192
 730 0000 1B4B     		ldr	r3, .L56
 731 0002 1B68     		ldr	r3, [r3]
 732              		.loc 1 199 7 view .LVU193
 733 0004 B3F5C86F 		cmp	r3, #1600
 734 0008 20DD     		ble	.L50
 735              		.loc 1 199 47 discriminator 1 view .LVU194
 736 000a 1A4A     		ldr	r2, .L56+4
 737 000c 1268     		ldr	r2, [r2]
 738              		.loc 1 199 30 discriminator 1 view .LVU195
 739 000e B2F5FA6F 		cmp	r2, #2000
 740 0012 1BDD     		ble	.L50
 200:Core/Src/main.c ****         if(Flag == 1){
 741              		.loc 1 200 9 is_stmt 1 view .LVU196
 742              		.loc 1 200 17 is_stmt 0 view .LVU197
 743 0014 184B     		ldr	r3, .L56+8
 744 0016 1B68     		ldr	r3, [r3]
 745              		.loc 1 200 11 view .LVU198
 746 0018 012B     		cmp	r3, #1
 747 001a 27D1     		bne	.L49
 201:Core/Src/main.c ****             Flag = 0;
 748              		.loc 1 201 13 is_stmt 1 view .LVU199
 749              		.loc 1 201 18 is_stmt 0 view .LVU200
 750 001c 164B     		ldr	r3, .L56+8
 751 001e 0022     		movs	r2, #0
 752 0020 1A60     		str	r2, [r3]
 202:Core/Src/main.c ****             if((FlagL == 1) && (FlagR == 1)){
ARM GAS  C:\Users\User\AppData\Local\Temp\ccHVLSih.s 			page 18


 753              		.loc 1 202 13 is_stmt 1 view .LVU201
 754              		.loc 1 202 23 is_stmt 0 view .LVU202
 755 0022 164B     		ldr	r3, .L56+12
 756 0024 1B68     		ldr	r3, [r3]
 757              		.loc 1 202 15 view .LVU203
 758 0026 012B     		cmp	r3, #1
 759 0028 0BD0     		beq	.L55
 760              	.L52:
 203:Core/Src/main.c ****             }else{
 204:Core/Src/main.c ****                 if(FlagL == 1){
 761              		.loc 1 204 17 is_stmt 1 view .LVU204
 762              		.loc 1 204 19 is_stmt 0 view .LVU205
 763 002a 012B     		cmp	r3, #1
 764 002c 03D0     		beq	.L53
 205:Core/Src/main.c ****                 }else{
 206:Core/Src/main.c ****                     stopFlg ++;
 765              		.loc 1 206 21 is_stmt 1 view .LVU206
 766              		.loc 1 206 29 is_stmt 0 view .LVU207
 767 002e 144A     		ldr	r2, .L56+16
 768 0030 1378     		ldrb	r3, [r2]	@ zero_extendqisi2
 769 0032 0133     		adds	r3, r3, #1
 770 0034 1370     		strb	r3, [r2]
 771              	.L53:
 207:Core/Src/main.c ****                 }
 208:Core/Src/main.c ****             }
 209:Core/Src/main.c ****             FlagL = 0;
 772              		.loc 1 209 13 is_stmt 1 view .LVU208
 773              		.loc 1 209 19 is_stmt 0 view .LVU209
 774 0036 0023     		movs	r3, #0
 775 0038 104A     		ldr	r2, .L56+12
 776 003a 1360     		str	r3, [r2]
 210:Core/Src/main.c ****             FlagR = 0;
 777              		.loc 1 210 13 is_stmt 1 view .LVU210
 778              		.loc 1 210 19 is_stmt 0 view .LVU211
 779 003c 114A     		ldr	r2, .L56+20
 780 003e 1360     		str	r3, [r2]
 781 0040 7047     		bx	lr
 782              	.L55:
 202:Core/Src/main.c ****             }else{
 783              		.loc 1 202 39 discriminator 1 view .LVU212
 784 0042 104A     		ldr	r2, .L56+20
 785 0044 1268     		ldr	r2, [r2]
 202:Core/Src/main.c ****             }else{
 786              		.loc 1 202 29 discriminator 1 view .LVU213
 787 0046 012A     		cmp	r2, #1
 788 0048 EFD1     		bne	.L52
 789 004a F4E7     		b	.L53
 790              	.L50:
 211:Core/Src/main.c ****         }
 212:Core/Src/main.c ****     }else{
 213:Core/Src/main.c ****         Flag = 1;
 791              		.loc 1 213 9 is_stmt 1 view .LVU214
 792              		.loc 1 213 14 is_stmt 0 view .LVU215
 793 004c 0A4A     		ldr	r2, .L56+8
 794 004e 0121     		movs	r1, #1
 795 0050 1160     		str	r1, [r2]
 214:Core/Src/main.c ****         if(Side_SensorL < 1600)FlagL = 1;
ARM GAS  C:\Users\User\AppData\Local\Temp\ccHVLSih.s 			page 19


 796              		.loc 1 214 9 is_stmt 1 view .LVU216
 797              		.loc 1 214 11 is_stmt 0 view .LVU217
 798 0052 B3F5C86F 		cmp	r3, #1600
 799 0056 01DA     		bge	.L54
 800              		.loc 1 214 32 is_stmt 1 discriminator 1 view .LVU218
 801              		.loc 1 214 38 is_stmt 0 discriminator 1 view .LVU219
 802 0058 084B     		ldr	r3, .L56+12
 803 005a 1960     		str	r1, [r3]
 804              	.L54:
 215:Core/Src/main.c ****         if(Side_SensorR < 2000)FlagR = 1;
 805              		.loc 1 215 9 is_stmt 1 view .LVU220
 806              		.loc 1 215 25 is_stmt 0 view .LVU221
 807 005c 054B     		ldr	r3, .L56+4
 808 005e 1B68     		ldr	r3, [r3]
 809              		.loc 1 215 11 view .LVU222
 810 0060 B3F5FA6F 		cmp	r3, #2000
 811 0064 02DA     		bge	.L49
 812              		.loc 1 215 32 is_stmt 1 discriminator 1 view .LVU223
 813              		.loc 1 215 38 is_stmt 0 discriminator 1 view .LVU224
 814 0066 074B     		ldr	r3, .L56+20
 815 0068 0122     		movs	r2, #1
 816 006a 1A60     		str	r2, [r3]
 817              	.L49:
 216:Core/Src/main.c ****     }
 217:Core/Src/main.c **** }
 818              		.loc 1 217 1 view .LVU225
 819 006c 7047     		bx	lr
 820              	.L57:
 821 006e 00BF     		.align	2
 822              	.L56:
 823 0070 00000000 		.word	.LANCHOR8
 824 0074 00000000 		.word	.LANCHOR7
 825 0078 00000000 		.word	.LANCHOR22
 826 007c 00000000 		.word	.LANCHOR23
 827 0080 00000000 		.word	.LANCHOR13
 828 0084 00000000 		.word	.LANCHOR24
 829              		.cfi_endproc
 830              	.LFE130:
 832              		.section	.text.HAL_TIM_PeriodElapsedCallback,"ax",%progbits
 833              		.align	1
 834              		.global	HAL_TIM_PeriodElapsedCallback
 835              		.syntax unified
 836              		.thumb
 837              		.thumb_func
 839              	HAL_TIM_PeriodElapsedCallback:
 840              	.LVL44:
 841              	.LFB131:
 218:Core/Src/main.c ****   void HAL_TIM_PeriodElapsedCallback(TIM_HandleTypeDef *htim)
 219:Core/Src/main.c ****   {
 842              		.loc 1 219 3 is_stmt 1 view -0
 843              		.cfi_startproc
 844              		@ args = 0, pretend = 0, frame = 0
 845              		@ frame_needed = 0, uses_anonymous_args = 0
 846              		.loc 1 219 3 is_stmt 0 view .LVU227
 847 0000 10B5     		push	{r4, lr}
 848              	.LCFI7:
 849              		.cfi_def_cfa_offset 8
ARM GAS  C:\Users\User\AppData\Local\Temp\ccHVLSih.s 			page 20


 850              		.cfi_offset 4, -8
 851              		.cfi_offset 14, -4
 852 0002 0446     		mov	r4, r0
 220:Core/Src/main.c ****     if(htim->Instance == TIM2){
 853              		.loc 1 220 5 is_stmt 1 view .LVU228
 854              		.loc 1 220 12 is_stmt 0 view .LVU229
 855 0004 0368     		ldr	r3, [r0]
 856              		.loc 1 220 7 view .LVU230
 857 0006 B3F1804F 		cmp	r3, #1073741824
 858 000a 04D0     		beq	.L62
 859              	.LVL45:
 860              	.L59:
 221:Core/Src/main.c ****       sensGet();
 222:Core/Src/main.c ****     }
 223:Core/Src/main.c ****     if(htim->Instance == TIM3){
 861              		.loc 1 223 5 is_stmt 1 view .LVU231
 862              		.loc 1 223 12 is_stmt 0 view .LVU232
 863 000c 2268     		ldr	r2, [r4]
 864              		.loc 1 223 7 view .LVU233
 865 000e 084B     		ldr	r3, .L64
 866 0010 9A42     		cmp	r2, r3
 867 0012 03D0     		beq	.L63
 868              	.L58:
 224:Core/Src/main.c ****       SensUp();
 225:Core/Src/main.c ****       Side_SensUp();
 226:Core/Src/main.c ****       LineTrace();
 227:Core/Src/main.c ****       stop();
 228:Core/Src/main.c ****     }
 229:Core/Src/main.c ****   }/*
 869              		.loc 1 229 3 view .LVU234
 870 0014 10BD     		pop	{r4, pc}
 871              	.LVL46:
 872              	.L62:
 221:Core/Src/main.c ****       sensGet();
 873              		.loc 1 221 7 is_stmt 1 view .LVU235
 874 0016 FFF7FEFF 		bl	sensGet
 875              	.LVL47:
 221:Core/Src/main.c ****       sensGet();
 876              		.loc 1 221 7 is_stmt 0 view .LVU236
 877 001a F7E7     		b	.L59
 878              	.L63:
 224:Core/Src/main.c ****       SensUp();
 879              		.loc 1 224 7 is_stmt 1 view .LVU237
 880 001c FFF7FEFF 		bl	SensUp
 881              	.LVL48:
 225:Core/Src/main.c ****       LineTrace();
 882              		.loc 1 225 7 view .LVU238
 883 0020 FFF7FEFF 		bl	Side_SensUp
 884              	.LVL49:
 226:Core/Src/main.c ****       stop();
 885              		.loc 1 226 7 view .LVU239
 886 0024 FFF7FEFF 		bl	LineTrace
 887              	.LVL50:
 227:Core/Src/main.c ****     }
 888              		.loc 1 227 7 view .LVU240
 889 0028 FFF7FEFF 		bl	stop
 890              	.LVL51:
ARM GAS  C:\Users\User\AppData\Local\Temp\ccHVLSih.s 			page 21


 891              		.loc 1 229 3 is_stmt 0 view .LVU241
 892 002c F2E7     		b	.L58
 893              	.L65:
 894 002e 00BF     		.align	2
 895              	.L64:
 896 0030 00040040 		.word	1073742848
 897              		.cfi_endproc
 898              	.LFE131:
 900              		.section	.text._write,"ax",%progbits
 901              		.align	1
 902              		.global	_write
 903              		.syntax unified
 904              		.thumb
 905              		.thumb_func
 907              	_write:
 908              	.LVL52:
 909              	.LFB134:
 230:Core/Src/main.c ****   PUTCHAR_PROTOTYPE {
 231:Core/Src/main.c **** 	HAL_UART_Transmit(&huart2, (uint16_t *)&analog2, 1, 0xFFFF);
 232:Core/Src/main.c **** 	return analog2;
 233:Core/Src/main.c **** }*/
 234:Core/Src/main.c **** /* USER CODE END 0 */
 235:Core/Src/main.c **** 
 236:Core/Src/main.c **** /**
 237:Core/Src/main.c ****   * @brief  The application entry point.
 238:Core/Src/main.c ****   * @retval int
 239:Core/Src/main.c ****   */
 240:Core/Src/main.c **** int main(void)
 241:Core/Src/main.c **** {
 242:Core/Src/main.c ****   /* USER CODE BEGIN 1 */
 243:Core/Src/main.c ****   /* USER CODE END 1 */
 244:Core/Src/main.c **** 
 245:Core/Src/main.c ****   /* MCU Configuration--------------------------------------------------------*/
 246:Core/Src/main.c **** 
 247:Core/Src/main.c ****   /* Reset of all peripherals, Initializes the Flash interface and the Systick. */
 248:Core/Src/main.c ****   HAL_Init();
 249:Core/Src/main.c **** 
 250:Core/Src/main.c ****   /* USER CODE BEGIN Init */
 251:Core/Src/main.c **** 
 252:Core/Src/main.c ****   /* USER CODE END Init */
 253:Core/Src/main.c **** 
 254:Core/Src/main.c ****   /* Configure the system clock */
 255:Core/Src/main.c ****   SystemClock_Config();
 256:Core/Src/main.c **** 
 257:Core/Src/main.c ****   /* USER CODE BEGIN SysInit */
 258:Core/Src/main.c **** 
 259:Core/Src/main.c ****   /* USER CODE END SysInit */
 260:Core/Src/main.c **** 
 261:Core/Src/main.c ****   /* Initialize all configured peripherals */
 262:Core/Src/main.c ****   MX_GPIO_Init();
 263:Core/Src/main.c ****   MX_DMA_Init();
 264:Core/Src/main.c ****   MX_USART2_UART_Init();
 265:Core/Src/main.c ****   MX_ADC1_Init();
 266:Core/Src/main.c ****   MX_ADC2_Init();
 267:Core/Src/main.c ****   MX_TIM1_Init();
 268:Core/Src/main.c ****   MX_TIM3_Init();
 269:Core/Src/main.c ****   MX_TIM2_Init();
ARM GAS  C:\Users\User\AppData\Local\Temp\ccHVLSih.s 			page 22


 270:Core/Src/main.c ****   /* USER CODE BEGIN 2 */
 271:Core/Src/main.c ****   HAL_GPIO_WritePin(LED_2_GPIO_Port,LED_2_Pin,1);
 272:Core/Src/main.c ****   HAL_GPIO_WritePin(LED_3_GPIO_Port,LED_3_Pin,1);
 273:Core/Src/main.c ****   HAL_GPIO_WritePin(LED_4_GPIO_Port,LED_4_Pin,1);
 274:Core/Src/main.c ****   HAL_TIM_Base_Start_IT(&htim2);
 275:Core/Src/main.c ****   HAL_TIM_Base_Start_IT(&htim3);
 276:Core/Src/main.c ****   if(HAL_TIM_PWM_Start(&htim1, TIM_CHANNEL_1) != HAL_OK) { Error_Handler(); }
 277:Core/Src/main.c ****   HAL_GPIO_WritePin(LED_4_GPIO_Port,LED_4_Pin,0);
 278:Core/Src/main.c ****   if(HAL_TIM_PWM_Start(&htim1, TIM_CHANNEL_3) != HAL_OK) { Error_Handler(); }
 279:Core/Src/main.c ****   HAL_GPIO_WritePin(LED_3_GPIO_Port,LED_3_Pin,0);
 280:Core/Src/main.c ****   if(HAL_ADC_Start_DMA(&hadc1, (uint32_t *) analog1, 2) != HAL_OK){
 281:Core/Src/main.c ****     Error_Handler();
 282:Core/Src/main.c ****   }
 283:Core/Src/main.c ****   HAL_GPIO_WritePin(LED_2_GPIO_Port,LED_2_Pin,0);
 284:Core/Src/main.c ****   if(HAL_ADC_Start_DMA(&hadc2, (uint32_t *) analog2, 3) != HAL_OK){
 285:Core/Src/main.c ****     Error_Handler();
 286:Core/Src/main.c ****   }
 287:Core/Src/main.c ****   while(1){
 288:Core/Src/main.c ****     while(button_state){
 289:Core/Src/main.c ****       HAL_GPIO_WritePin(GPIOA, GPIO_PIN_12, 1);
 290:Core/Src/main.c ****       __HAL_TIM_SET_COMPARE(&htim1, TIM_CHANNEL_1,0);
 291:Core/Src/main.c ****       HAL_GPIO_WritePin(GPIOA, GPIO_PIN_9, 0);
 292:Core/Src/main.c ****       __HAL_TIM_SET_COMPARE(&htim1, TIM_CHANNEL_3,0);
 293:Core/Src/main.c ****       button_state = HAL_GPIO_ReadPin(KEY1_GPIO_Port,KEY1_Pin);
 294:Core/Src/main.c ****       HAL_GPIO_WritePin(LED_3_GPIO_Port,LED_3_Pin,0);
 295:Core/Src/main.c ****     }
 296:Core/Src/main.c ****     HAL_Delay(1000);
 297:Core/Src/main.c ****     button_state=1;
 298:Core/Src/main.c **** 
 299:Core/Src/main.c ****   //HAL_UART_Receive_IT(&huart2, (uint16_t *)analog2, sizeof(analog2)/sizeof(analog2[0]));
 300:Core/Src/main.c ****   /* USER CODE END 2 */
 301:Core/Src/main.c **** 
 302:Core/Src/main.c ****   /* Infinite loop */
 303:Core/Src/main.c ****   /* USER CODE BEGIN WHILE */
 304:Core/Src/main.c **** 
 305:Core/Src/main.c ****     while (1)
 306:Core/Src/main.c ****     {
 307:Core/Src/main.c ****     /* USER CODE END WHILE */
 308:Core/Src/main.c **** 
 309:Core/Src/main.c ****     /* USER CODE BEGIN 3 */
 310:Core/Src/main.c ****       HAL_GPIO_WritePin(GPIOA, GPIO_PIN_12, 1);
 311:Core/Src/main.c ****       __HAL_TIM_SET_COMPARE(&htim1, TIM_CHANNEL_1,MotorL);
 312:Core/Src/main.c ****       HAL_GPIO_WritePin(GPIOA, GPIO_PIN_9, 0);
 313:Core/Src/main.c ****       __HAL_TIM_SET_COMPARE(&htim1, TIM_CHANNEL_3,MotorR);
 314:Core/Src/main.c **** 
 315:Core/Src/main.c ****       if(Curve_Sensor<2550){
 316:Core/Src/main.c ****         CommSpeed=10500;
 317:Core/Src/main.c ****         HAL_GPIO_TogglePin(LED_2_GPIO_Port,LED_2_Pin);
 318:Core/Src/main.c ****         HAL_GPIO_WritePin(LED_4_GPIO_Port,LED_4_Pin,0);
 319:Core/Src/main.c ****       }else{
 320:Core/Src/main.c ****         CommSpeed=9000;
 321:Core/Src/main.c ****         HAL_GPIO_TogglePin(LED_4_GPIO_Port,LED_4_Pin);
 322:Core/Src/main.c ****         HAL_GPIO_WritePin(LED_2_GPIO_Port,LED_2_Pin,0);
 323:Core/Src/main.c ****       }
 324:Core/Src/main.c ****       //printf("%d\r\n",Side_SensorR);
 325:Core/Src/main.c ****     //HAL_GPIO_WritePin(LED_4_GPIO_Port,LED_4_Pin,analog2[3]%2);
 326:Core/Src/main.c ****   if(!(button_state))break;
ARM GAS  C:\Users\User\AppData\Local\Temp\ccHVLSih.s 			page 23


 327:Core/Src/main.c ****     }
 328:Core/Src/main.c ****   }
 329:Core/Src/main.c ****   /* USER CODE END 3 */
 330:Core/Src/main.c **** }
 331:Core/Src/main.c **** 
 332:Core/Src/main.c **** /**
 333:Core/Src/main.c ****   * @brief System Clock Configuration
 334:Core/Src/main.c ****   * @retval None
 335:Core/Src/main.c ****   */
 336:Core/Src/main.c **** void SystemClock_Config(void)
 337:Core/Src/main.c **** {
 338:Core/Src/main.c ****   RCC_OscInitTypeDef RCC_OscInitStruct = {0};
 339:Core/Src/main.c ****   RCC_ClkInitTypeDef RCC_ClkInitStruct = {0};
 340:Core/Src/main.c ****   RCC_PeriphCLKInitTypeDef PeriphClkInit = {0};
 341:Core/Src/main.c **** 
 342:Core/Src/main.c ****   /** Initializes the RCC Oscillators according to the specified parameters
 343:Core/Src/main.c ****   * in the RCC_OscInitTypeDef structure.
 344:Core/Src/main.c ****   */
 345:Core/Src/main.c ****   RCC_OscInitStruct.OscillatorType = RCC_OSCILLATORTYPE_HSI;
 346:Core/Src/main.c ****   RCC_OscInitStruct.HSIState = RCC_HSI_ON;
 347:Core/Src/main.c ****   RCC_OscInitStruct.HSICalibrationValue = RCC_HSICALIBRATION_DEFAULT;
 348:Core/Src/main.c ****   RCC_OscInitStruct.PLL.PLLState = RCC_PLL_ON;
 349:Core/Src/main.c ****   RCC_OscInitStruct.PLL.PLLSource = RCC_PLLSOURCE_HSI;
 350:Core/Src/main.c ****   RCC_OscInitStruct.PLL.PLLMUL = RCC_PLL_MUL16;
 351:Core/Src/main.c ****   if (HAL_RCC_OscConfig(&RCC_OscInitStruct) != HAL_OK)
 352:Core/Src/main.c ****   {
 353:Core/Src/main.c ****     Error_Handler();
 354:Core/Src/main.c ****   }
 355:Core/Src/main.c **** 
 356:Core/Src/main.c ****   /** Initializes the CPU, AHB and APB buses clocks
 357:Core/Src/main.c ****   */
 358:Core/Src/main.c ****   RCC_ClkInitStruct.ClockType = RCC_CLOCKTYPE_HCLK|RCC_CLOCKTYPE_SYSCLK
 359:Core/Src/main.c ****                               |RCC_CLOCKTYPE_PCLK1|RCC_CLOCKTYPE_PCLK2;
 360:Core/Src/main.c ****   RCC_ClkInitStruct.SYSCLKSource = RCC_SYSCLKSOURCE_PLLCLK;
 361:Core/Src/main.c ****   RCC_ClkInitStruct.AHBCLKDivider = RCC_SYSCLK_DIV1;
 362:Core/Src/main.c ****   RCC_ClkInitStruct.APB1CLKDivider = RCC_HCLK_DIV2;
 363:Core/Src/main.c ****   RCC_ClkInitStruct.APB2CLKDivider = RCC_HCLK_DIV1;
 364:Core/Src/main.c **** 
 365:Core/Src/main.c ****   if (HAL_RCC_ClockConfig(&RCC_ClkInitStruct, FLASH_LATENCY_2) != HAL_OK)
 366:Core/Src/main.c ****   {
 367:Core/Src/main.c ****     Error_Handler();
 368:Core/Src/main.c ****   }
 369:Core/Src/main.c ****   PeriphClkInit.PeriphClockSelection = RCC_PERIPHCLK_TIM1;
 370:Core/Src/main.c ****   PeriphClkInit.Tim1ClockSelection = RCC_TIM1CLK_HCLK;
 371:Core/Src/main.c ****   if (HAL_RCCEx_PeriphCLKConfig(&PeriphClkInit) != HAL_OK)
 372:Core/Src/main.c ****   {
 373:Core/Src/main.c ****     Error_Handler();
 374:Core/Src/main.c ****   }
 375:Core/Src/main.c **** }
 376:Core/Src/main.c **** 
 377:Core/Src/main.c **** /* USER CODE BEGIN 4 */
 378:Core/Src/main.c **** 
 379:Core/Src/main.c **** int _write(int file, char *ptr, int len)
 380:Core/Src/main.c **** {
 910              		.loc 1 380 1 is_stmt 1 view -0
 911              		.cfi_startproc
 912              		@ args = 0, pretend = 0, frame = 0
ARM GAS  C:\Users\User\AppData\Local\Temp\ccHVLSih.s 			page 24


 913              		@ frame_needed = 0, uses_anonymous_args = 0
 914              		.loc 1 380 1 is_stmt 0 view .LVU243
 915 0000 10B5     		push	{r4, lr}
 916              	.LCFI8:
 917              		.cfi_def_cfa_offset 8
 918              		.cfi_offset 4, -8
 919              		.cfi_offset 14, -4
 920 0002 1446     		mov	r4, r2
 381:Core/Src/main.c ****   HAL_UART_Transmit(&huart2,(uint16_t *)ptr,len,10);
 921              		.loc 1 381 3 is_stmt 1 view .LVU244
 922 0004 0A23     		movs	r3, #10
 923 0006 92B2     		uxth	r2, r2
 924              	.LVL53:
 925              		.loc 1 381 3 is_stmt 0 view .LVU245
 926 0008 0248     		ldr	r0, .L68
 927              	.LVL54:
 928              		.loc 1 381 3 view .LVU246
 929 000a FFF7FEFF 		bl	HAL_UART_Transmit
 930              	.LVL55:
 382:Core/Src/main.c ****   return len;
 931              		.loc 1 382 3 is_stmt 1 view .LVU247
 383:Core/Src/main.c **** }
 932              		.loc 1 383 1 is_stmt 0 view .LVU248
 933 000e 2046     		mov	r0, r4
 934 0010 10BD     		pop	{r4, pc}
 935              	.LVL56:
 936              	.L69:
 937              		.loc 1 383 1 view .LVU249
 938 0012 00BF     		.align	2
 939              	.L68:
 940 0014 00000000 		.word	huart2
 941              		.cfi_endproc
 942              	.LFE134:
 944              		.section	.text.Error_Handler,"ax",%progbits
 945              		.align	1
 946              		.global	Error_Handler
 947              		.syntax unified
 948              		.thumb
 949              		.thumb_func
 951              	Error_Handler:
 952              	.LFB135:
 384:Core/Src/main.c **** 
 385:Core/Src/main.c **** /* USER CODE END 4 */
 386:Core/Src/main.c **** 
 387:Core/Src/main.c **** /**
 388:Core/Src/main.c ****   * @brief  This function is executed in case of error occurrence.
 389:Core/Src/main.c ****   * @retval None
 390:Core/Src/main.c ****   */
 391:Core/Src/main.c **** void Error_Handler(void)
 392:Core/Src/main.c **** {
 953              		.loc 1 392 1 is_stmt 1 view -0
 954              		.cfi_startproc
 955              		@ Volatile: function does not return.
 956              		@ args = 0, pretend = 0, frame = 0
 957              		@ frame_needed = 0, uses_anonymous_args = 0
 958              		@ link register save eliminated.
 393:Core/Src/main.c ****   /* USER CODE BEGIN Error_Handler_Debug */
ARM GAS  C:\Users\User\AppData\Local\Temp\ccHVLSih.s 			page 25


 394:Core/Src/main.c ****   /* User can add his own implementation to report the HAL error return state */
 395:Core/Src/main.c ****   __disable_irq();
 959              		.loc 1 395 3 view .LVU251
 960              	.LBB4:
 961              	.LBI4:
 962              		.file 2 "Drivers/CMSIS/Include/cmsis_gcc.h"
   1:Drivers/CMSIS/Include/cmsis_gcc.h **** /**************************************************************************//**
   2:Drivers/CMSIS/Include/cmsis_gcc.h ****  * @file     cmsis_gcc.h
   3:Drivers/CMSIS/Include/cmsis_gcc.h ****  * @brief    CMSIS compiler GCC header file
   4:Drivers/CMSIS/Include/cmsis_gcc.h ****  * @version  V5.0.4
   5:Drivers/CMSIS/Include/cmsis_gcc.h ****  * @date     09. April 2018
   6:Drivers/CMSIS/Include/cmsis_gcc.h ****  ******************************************************************************/
   7:Drivers/CMSIS/Include/cmsis_gcc.h **** /*
   8:Drivers/CMSIS/Include/cmsis_gcc.h ****  * Copyright (c) 2009-2018 Arm Limited. All rights reserved.
   9:Drivers/CMSIS/Include/cmsis_gcc.h ****  *
  10:Drivers/CMSIS/Include/cmsis_gcc.h ****  * SPDX-License-Identifier: Apache-2.0
  11:Drivers/CMSIS/Include/cmsis_gcc.h ****  *
  12:Drivers/CMSIS/Include/cmsis_gcc.h ****  * Licensed under the Apache License, Version 2.0 (the License); you may
  13:Drivers/CMSIS/Include/cmsis_gcc.h ****  * not use this file except in compliance with the License.
  14:Drivers/CMSIS/Include/cmsis_gcc.h ****  * You may obtain a copy of the License at
  15:Drivers/CMSIS/Include/cmsis_gcc.h ****  *
  16:Drivers/CMSIS/Include/cmsis_gcc.h ****  * www.apache.org/licenses/LICENSE-2.0
  17:Drivers/CMSIS/Include/cmsis_gcc.h ****  *
  18:Drivers/CMSIS/Include/cmsis_gcc.h ****  * Unless required by applicable law or agreed to in writing, software
  19:Drivers/CMSIS/Include/cmsis_gcc.h ****  * distributed under the License is distributed on an AS IS BASIS, WITHOUT
  20:Drivers/CMSIS/Include/cmsis_gcc.h ****  * WARRANTIES OR CONDITIONS OF ANY KIND, either express or implied.
  21:Drivers/CMSIS/Include/cmsis_gcc.h ****  * See the License for the specific language governing permissions and
  22:Drivers/CMSIS/Include/cmsis_gcc.h ****  * limitations under the License.
  23:Drivers/CMSIS/Include/cmsis_gcc.h ****  */
  24:Drivers/CMSIS/Include/cmsis_gcc.h **** 
  25:Drivers/CMSIS/Include/cmsis_gcc.h **** #ifndef __CMSIS_GCC_H
  26:Drivers/CMSIS/Include/cmsis_gcc.h **** #define __CMSIS_GCC_H
  27:Drivers/CMSIS/Include/cmsis_gcc.h **** 
  28:Drivers/CMSIS/Include/cmsis_gcc.h **** /* ignore some GCC warnings */
  29:Drivers/CMSIS/Include/cmsis_gcc.h **** #pragma GCC diagnostic push
  30:Drivers/CMSIS/Include/cmsis_gcc.h **** #pragma GCC diagnostic ignored "-Wsign-conversion"
  31:Drivers/CMSIS/Include/cmsis_gcc.h **** #pragma GCC diagnostic ignored "-Wconversion"
  32:Drivers/CMSIS/Include/cmsis_gcc.h **** #pragma GCC diagnostic ignored "-Wunused-parameter"
  33:Drivers/CMSIS/Include/cmsis_gcc.h **** 
  34:Drivers/CMSIS/Include/cmsis_gcc.h **** /* Fallback for __has_builtin */
  35:Drivers/CMSIS/Include/cmsis_gcc.h **** #ifndef __has_builtin
  36:Drivers/CMSIS/Include/cmsis_gcc.h ****   #define __has_builtin(x) (0)
  37:Drivers/CMSIS/Include/cmsis_gcc.h **** #endif
  38:Drivers/CMSIS/Include/cmsis_gcc.h **** 
  39:Drivers/CMSIS/Include/cmsis_gcc.h **** /* CMSIS compiler specific defines */
  40:Drivers/CMSIS/Include/cmsis_gcc.h **** #ifndef   __ASM
  41:Drivers/CMSIS/Include/cmsis_gcc.h ****   #define __ASM                                  __asm
  42:Drivers/CMSIS/Include/cmsis_gcc.h **** #endif
  43:Drivers/CMSIS/Include/cmsis_gcc.h **** #ifndef   __INLINE
  44:Drivers/CMSIS/Include/cmsis_gcc.h ****   #define __INLINE                               inline
  45:Drivers/CMSIS/Include/cmsis_gcc.h **** #endif
  46:Drivers/CMSIS/Include/cmsis_gcc.h **** #ifndef   __STATIC_INLINE
  47:Drivers/CMSIS/Include/cmsis_gcc.h ****   #define __STATIC_INLINE                        static inline
  48:Drivers/CMSIS/Include/cmsis_gcc.h **** #endif
  49:Drivers/CMSIS/Include/cmsis_gcc.h **** #ifndef   __STATIC_FORCEINLINE                 
  50:Drivers/CMSIS/Include/cmsis_gcc.h ****   #define __STATIC_FORCEINLINE                   __attribute__((always_inline)) static inline
  51:Drivers/CMSIS/Include/cmsis_gcc.h **** #endif                                           
ARM GAS  C:\Users\User\AppData\Local\Temp\ccHVLSih.s 			page 26


  52:Drivers/CMSIS/Include/cmsis_gcc.h **** #ifndef   __NO_RETURN
  53:Drivers/CMSIS/Include/cmsis_gcc.h ****   #define __NO_RETURN                            __attribute__((__noreturn__))
  54:Drivers/CMSIS/Include/cmsis_gcc.h **** #endif
  55:Drivers/CMSIS/Include/cmsis_gcc.h **** #ifndef   __USED
  56:Drivers/CMSIS/Include/cmsis_gcc.h ****   #define __USED                                 __attribute__((used))
  57:Drivers/CMSIS/Include/cmsis_gcc.h **** #endif
  58:Drivers/CMSIS/Include/cmsis_gcc.h **** #ifndef   __WEAK
  59:Drivers/CMSIS/Include/cmsis_gcc.h ****   #define __WEAK                                 __attribute__((weak))
  60:Drivers/CMSIS/Include/cmsis_gcc.h **** #endif
  61:Drivers/CMSIS/Include/cmsis_gcc.h **** #ifndef   __PACKED
  62:Drivers/CMSIS/Include/cmsis_gcc.h ****   #define __PACKED                               __attribute__((packed, aligned(1)))
  63:Drivers/CMSIS/Include/cmsis_gcc.h **** #endif
  64:Drivers/CMSIS/Include/cmsis_gcc.h **** #ifndef   __PACKED_STRUCT
  65:Drivers/CMSIS/Include/cmsis_gcc.h ****   #define __PACKED_STRUCT                        struct __attribute__((packed, aligned(1)))
  66:Drivers/CMSIS/Include/cmsis_gcc.h **** #endif
  67:Drivers/CMSIS/Include/cmsis_gcc.h **** #ifndef   __PACKED_UNION
  68:Drivers/CMSIS/Include/cmsis_gcc.h ****   #define __PACKED_UNION                         union __attribute__((packed, aligned(1)))
  69:Drivers/CMSIS/Include/cmsis_gcc.h **** #endif
  70:Drivers/CMSIS/Include/cmsis_gcc.h **** #ifndef   __UNALIGNED_UINT32        /* deprecated */
  71:Drivers/CMSIS/Include/cmsis_gcc.h ****   #pragma GCC diagnostic push
  72:Drivers/CMSIS/Include/cmsis_gcc.h ****   #pragma GCC diagnostic ignored "-Wpacked"
  73:Drivers/CMSIS/Include/cmsis_gcc.h ****   #pragma GCC diagnostic ignored "-Wattributes"
  74:Drivers/CMSIS/Include/cmsis_gcc.h ****   struct __attribute__((packed)) T_UINT32 { uint32_t v; };
  75:Drivers/CMSIS/Include/cmsis_gcc.h ****   #pragma GCC diagnostic pop
  76:Drivers/CMSIS/Include/cmsis_gcc.h ****   #define __UNALIGNED_UINT32(x)                  (((struct T_UINT32 *)(x))->v)
  77:Drivers/CMSIS/Include/cmsis_gcc.h **** #endif
  78:Drivers/CMSIS/Include/cmsis_gcc.h **** #ifndef   __UNALIGNED_UINT16_WRITE
  79:Drivers/CMSIS/Include/cmsis_gcc.h ****   #pragma GCC diagnostic push
  80:Drivers/CMSIS/Include/cmsis_gcc.h ****   #pragma GCC diagnostic ignored "-Wpacked"
  81:Drivers/CMSIS/Include/cmsis_gcc.h ****   #pragma GCC diagnostic ignored "-Wattributes"
  82:Drivers/CMSIS/Include/cmsis_gcc.h ****   __PACKED_STRUCT T_UINT16_WRITE { uint16_t v; };
  83:Drivers/CMSIS/Include/cmsis_gcc.h ****   #pragma GCC diagnostic pop
  84:Drivers/CMSIS/Include/cmsis_gcc.h ****   #define __UNALIGNED_UINT16_WRITE(addr, val)    (void)((((struct T_UINT16_WRITE *)(void *)(addr))-
  85:Drivers/CMSIS/Include/cmsis_gcc.h **** #endif
  86:Drivers/CMSIS/Include/cmsis_gcc.h **** #ifndef   __UNALIGNED_UINT16_READ
  87:Drivers/CMSIS/Include/cmsis_gcc.h ****   #pragma GCC diagnostic push
  88:Drivers/CMSIS/Include/cmsis_gcc.h ****   #pragma GCC diagnostic ignored "-Wpacked"
  89:Drivers/CMSIS/Include/cmsis_gcc.h ****   #pragma GCC diagnostic ignored "-Wattributes"
  90:Drivers/CMSIS/Include/cmsis_gcc.h ****   __PACKED_STRUCT T_UINT16_READ { uint16_t v; };
  91:Drivers/CMSIS/Include/cmsis_gcc.h ****   #pragma GCC diagnostic pop
  92:Drivers/CMSIS/Include/cmsis_gcc.h ****   #define __UNALIGNED_UINT16_READ(addr)          (((const struct T_UINT16_READ *)(const void *)(add
  93:Drivers/CMSIS/Include/cmsis_gcc.h **** #endif
  94:Drivers/CMSIS/Include/cmsis_gcc.h **** #ifndef   __UNALIGNED_UINT32_WRITE
  95:Drivers/CMSIS/Include/cmsis_gcc.h ****   #pragma GCC diagnostic push
  96:Drivers/CMSIS/Include/cmsis_gcc.h ****   #pragma GCC diagnostic ignored "-Wpacked"
  97:Drivers/CMSIS/Include/cmsis_gcc.h ****   #pragma GCC diagnostic ignored "-Wattributes"
  98:Drivers/CMSIS/Include/cmsis_gcc.h ****   __PACKED_STRUCT T_UINT32_WRITE { uint32_t v; };
  99:Drivers/CMSIS/Include/cmsis_gcc.h ****   #pragma GCC diagnostic pop
 100:Drivers/CMSIS/Include/cmsis_gcc.h ****   #define __UNALIGNED_UINT32_WRITE(addr, val)    (void)((((struct T_UINT32_WRITE *)(void *)(addr))-
 101:Drivers/CMSIS/Include/cmsis_gcc.h **** #endif
 102:Drivers/CMSIS/Include/cmsis_gcc.h **** #ifndef   __UNALIGNED_UINT32_READ
 103:Drivers/CMSIS/Include/cmsis_gcc.h ****   #pragma GCC diagnostic push
 104:Drivers/CMSIS/Include/cmsis_gcc.h ****   #pragma GCC diagnostic ignored "-Wpacked"
 105:Drivers/CMSIS/Include/cmsis_gcc.h ****   #pragma GCC diagnostic ignored "-Wattributes"
 106:Drivers/CMSIS/Include/cmsis_gcc.h ****   __PACKED_STRUCT T_UINT32_READ { uint32_t v; };
 107:Drivers/CMSIS/Include/cmsis_gcc.h ****   #pragma GCC diagnostic pop
 108:Drivers/CMSIS/Include/cmsis_gcc.h ****   #define __UNALIGNED_UINT32_READ(addr)          (((const struct T_UINT32_READ *)(const void *)(add
ARM GAS  C:\Users\User\AppData\Local\Temp\ccHVLSih.s 			page 27


 109:Drivers/CMSIS/Include/cmsis_gcc.h **** #endif
 110:Drivers/CMSIS/Include/cmsis_gcc.h **** #ifndef   __ALIGNED
 111:Drivers/CMSIS/Include/cmsis_gcc.h ****   #define __ALIGNED(x)                           __attribute__((aligned(x)))
 112:Drivers/CMSIS/Include/cmsis_gcc.h **** #endif
 113:Drivers/CMSIS/Include/cmsis_gcc.h **** #ifndef   __RESTRICT
 114:Drivers/CMSIS/Include/cmsis_gcc.h ****   #define __RESTRICT                             __restrict
 115:Drivers/CMSIS/Include/cmsis_gcc.h **** #endif
 116:Drivers/CMSIS/Include/cmsis_gcc.h **** 
 117:Drivers/CMSIS/Include/cmsis_gcc.h **** 
 118:Drivers/CMSIS/Include/cmsis_gcc.h **** /* ###########################  Core Function Access  ########################### */
 119:Drivers/CMSIS/Include/cmsis_gcc.h **** /** \ingroup  CMSIS_Core_FunctionInterface
 120:Drivers/CMSIS/Include/cmsis_gcc.h ****     \defgroup CMSIS_Core_RegAccFunctions CMSIS Core Register Access Functions
 121:Drivers/CMSIS/Include/cmsis_gcc.h ****   @{
 122:Drivers/CMSIS/Include/cmsis_gcc.h ****  */
 123:Drivers/CMSIS/Include/cmsis_gcc.h **** 
 124:Drivers/CMSIS/Include/cmsis_gcc.h **** /**
 125:Drivers/CMSIS/Include/cmsis_gcc.h ****   \brief   Enable IRQ Interrupts
 126:Drivers/CMSIS/Include/cmsis_gcc.h ****   \details Enables IRQ interrupts by clearing the I-bit in the CPSR.
 127:Drivers/CMSIS/Include/cmsis_gcc.h ****            Can only be executed in Privileged modes.
 128:Drivers/CMSIS/Include/cmsis_gcc.h ****  */
 129:Drivers/CMSIS/Include/cmsis_gcc.h **** __STATIC_FORCEINLINE void __enable_irq(void)
 130:Drivers/CMSIS/Include/cmsis_gcc.h **** {
 131:Drivers/CMSIS/Include/cmsis_gcc.h ****   __ASM volatile ("cpsie i" : : : "memory");
 132:Drivers/CMSIS/Include/cmsis_gcc.h **** }
 133:Drivers/CMSIS/Include/cmsis_gcc.h **** 
 134:Drivers/CMSIS/Include/cmsis_gcc.h **** 
 135:Drivers/CMSIS/Include/cmsis_gcc.h **** /**
 136:Drivers/CMSIS/Include/cmsis_gcc.h ****   \brief   Disable IRQ Interrupts
 137:Drivers/CMSIS/Include/cmsis_gcc.h ****   \details Disables IRQ interrupts by setting the I-bit in the CPSR.
 138:Drivers/CMSIS/Include/cmsis_gcc.h ****            Can only be executed in Privileged modes.
 139:Drivers/CMSIS/Include/cmsis_gcc.h ****  */
 140:Drivers/CMSIS/Include/cmsis_gcc.h **** __STATIC_FORCEINLINE void __disable_irq(void)
 963              		.loc 2 140 27 view .LVU252
 964              	.LBB5:
 141:Drivers/CMSIS/Include/cmsis_gcc.h **** {
 142:Drivers/CMSIS/Include/cmsis_gcc.h ****   __ASM volatile ("cpsid i" : : : "memory");
 965              		.loc 2 142 3 view .LVU253
 966              		.syntax unified
 967              	@ 142 "Drivers/CMSIS/Include/cmsis_gcc.h" 1
 968 0000 72B6     		cpsid i
 969              	@ 0 "" 2
 970              		.thumb
 971              		.syntax unified
 972              	.L71:
 973              	.LBE5:
 974              	.LBE4:
 396:Core/Src/main.c ****   while (1)
 975              		.loc 1 396 3 discriminator 1 view .LVU254
 397:Core/Src/main.c ****   {
 398:Core/Src/main.c ****   }
 976              		.loc 1 398 3 discriminator 1 view .LVU255
 396:Core/Src/main.c ****   while (1)
 977              		.loc 1 396 9 discriminator 1 view .LVU256
 978 0002 FEE7     		b	.L71
 979              		.cfi_endproc
 980              	.LFE135:
 982              		.section	.text.SystemClock_Config,"ax",%progbits
ARM GAS  C:\Users\User\AppData\Local\Temp\ccHVLSih.s 			page 28


 983              		.align	1
 984              		.global	SystemClock_Config
 985              		.syntax unified
 986              		.thumb
 987              		.thumb_func
 989              	SystemClock_Config:
 990              	.LFB133:
 337:Core/Src/main.c ****   RCC_OscInitTypeDef RCC_OscInitStruct = {0};
 991              		.loc 1 337 1 view -0
 992              		.cfi_startproc
 993              		@ args = 0, pretend = 0, frame = 88
 994              		@ frame_needed = 0, uses_anonymous_args = 0
 995 0000 00B5     		push	{lr}
 996              	.LCFI9:
 997              		.cfi_def_cfa_offset 4
 998              		.cfi_offset 14, -4
 999 0002 97B0     		sub	sp, sp, #92
 1000              	.LCFI10:
 1001              		.cfi_def_cfa_offset 96
 338:Core/Src/main.c ****   RCC_ClkInitTypeDef RCC_ClkInitStruct = {0};
 1002              		.loc 1 338 3 view .LVU258
 338:Core/Src/main.c ****   RCC_ClkInitTypeDef RCC_ClkInitStruct = {0};
 1003              		.loc 1 338 22 is_stmt 0 view .LVU259
 1004 0004 2822     		movs	r2, #40
 1005 0006 0021     		movs	r1, #0
 1006 0008 0CA8     		add	r0, sp, #48
 1007 000a FFF7FEFF 		bl	memset
 1008              	.LVL57:
 339:Core/Src/main.c ****   RCC_PeriphCLKInitTypeDef PeriphClkInit = {0};
 1009              		.loc 1 339 3 is_stmt 1 view .LVU260
 339:Core/Src/main.c ****   RCC_PeriphCLKInitTypeDef PeriphClkInit = {0};
 1010              		.loc 1 339 22 is_stmt 0 view .LVU261
 1011 000e 0023     		movs	r3, #0
 1012 0010 0793     		str	r3, [sp, #28]
 1013 0012 0893     		str	r3, [sp, #32]
 1014 0014 0993     		str	r3, [sp, #36]
 1015 0016 0A93     		str	r3, [sp, #40]
 1016 0018 0B93     		str	r3, [sp, #44]
 340:Core/Src/main.c **** 
 1017              		.loc 1 340 3 is_stmt 1 view .LVU262
 340:Core/Src/main.c **** 
 1018              		.loc 1 340 28 is_stmt 0 view .LVU263
 1019 001a 0193     		str	r3, [sp, #4]
 1020 001c 0293     		str	r3, [sp, #8]
 1021 001e 0393     		str	r3, [sp, #12]
 1022 0020 0493     		str	r3, [sp, #16]
 1023 0022 0593     		str	r3, [sp, #20]
 1024 0024 0693     		str	r3, [sp, #24]
 345:Core/Src/main.c ****   RCC_OscInitStruct.HSIState = RCC_HSI_ON;
 1025              		.loc 1 345 3 is_stmt 1 view .LVU264
 345:Core/Src/main.c ****   RCC_OscInitStruct.HSIState = RCC_HSI_ON;
 1026              		.loc 1 345 36 is_stmt 0 view .LVU265
 1027 0026 0223     		movs	r3, #2
 1028 0028 0C93     		str	r3, [sp, #48]
 346:Core/Src/main.c ****   RCC_OscInitStruct.HSICalibrationValue = RCC_HSICALIBRATION_DEFAULT;
 1029              		.loc 1 346 3 is_stmt 1 view .LVU266
 346:Core/Src/main.c ****   RCC_OscInitStruct.HSICalibrationValue = RCC_HSICALIBRATION_DEFAULT;
ARM GAS  C:\Users\User\AppData\Local\Temp\ccHVLSih.s 			page 29


 1030              		.loc 1 346 30 is_stmt 0 view .LVU267
 1031 002a 0122     		movs	r2, #1
 1032 002c 1092     		str	r2, [sp, #64]
 347:Core/Src/main.c ****   RCC_OscInitStruct.PLL.PLLState = RCC_PLL_ON;
 1033              		.loc 1 347 3 is_stmt 1 view .LVU268
 347:Core/Src/main.c ****   RCC_OscInitStruct.PLL.PLLState = RCC_PLL_ON;
 1034              		.loc 1 347 41 is_stmt 0 view .LVU269
 1035 002e 1022     		movs	r2, #16
 1036 0030 1192     		str	r2, [sp, #68]
 348:Core/Src/main.c ****   RCC_OscInitStruct.PLL.PLLSource = RCC_PLLSOURCE_HSI;
 1037              		.loc 1 348 3 is_stmt 1 view .LVU270
 348:Core/Src/main.c ****   RCC_OscInitStruct.PLL.PLLSource = RCC_PLLSOURCE_HSI;
 1038              		.loc 1 348 34 is_stmt 0 view .LVU271
 1039 0032 1393     		str	r3, [sp, #76]
 349:Core/Src/main.c ****   RCC_OscInitStruct.PLL.PLLMUL = RCC_PLL_MUL16;
 1040              		.loc 1 349 3 is_stmt 1 view .LVU272
 350:Core/Src/main.c ****   if (HAL_RCC_OscConfig(&RCC_OscInitStruct) != HAL_OK)
 1041              		.loc 1 350 3 view .LVU273
 350:Core/Src/main.c ****   if (HAL_RCC_OscConfig(&RCC_OscInitStruct) != HAL_OK)
 1042              		.loc 1 350 32 is_stmt 0 view .LVU274
 1043 0034 4FF46013 		mov	r3, #3670016
 1044 0038 1593     		str	r3, [sp, #84]
 351:Core/Src/main.c ****   {
 1045              		.loc 1 351 3 is_stmt 1 view .LVU275
 351:Core/Src/main.c ****   {
 1046              		.loc 1 351 7 is_stmt 0 view .LVU276
 1047 003a 0CA8     		add	r0, sp, #48
 1048 003c FFF7FEFF 		bl	HAL_RCC_OscConfig
 1049              	.LVL58:
 351:Core/Src/main.c ****   {
 1050              		.loc 1 351 6 view .LVU277
 1051 0040 C8B9     		cbnz	r0, .L77
 358:Core/Src/main.c ****                               |RCC_CLOCKTYPE_PCLK1|RCC_CLOCKTYPE_PCLK2;
 1052              		.loc 1 358 3 is_stmt 1 view .LVU278
 358:Core/Src/main.c ****                               |RCC_CLOCKTYPE_PCLK1|RCC_CLOCKTYPE_PCLK2;
 1053              		.loc 1 358 31 is_stmt 0 view .LVU279
 1054 0042 0F23     		movs	r3, #15
 1055 0044 0793     		str	r3, [sp, #28]
 360:Core/Src/main.c ****   RCC_ClkInitStruct.AHBCLKDivider = RCC_SYSCLK_DIV1;
 1056              		.loc 1 360 3 is_stmt 1 view .LVU280
 360:Core/Src/main.c ****   RCC_ClkInitStruct.AHBCLKDivider = RCC_SYSCLK_DIV1;
 1057              		.loc 1 360 34 is_stmt 0 view .LVU281
 1058 0046 0221     		movs	r1, #2
 1059 0048 0891     		str	r1, [sp, #32]
 361:Core/Src/main.c ****   RCC_ClkInitStruct.APB1CLKDivider = RCC_HCLK_DIV2;
 1060              		.loc 1 361 3 is_stmt 1 view .LVU282
 361:Core/Src/main.c ****   RCC_ClkInitStruct.APB1CLKDivider = RCC_HCLK_DIV2;
 1061              		.loc 1 361 35 is_stmt 0 view .LVU283
 1062 004a 0023     		movs	r3, #0
 1063 004c 0993     		str	r3, [sp, #36]
 362:Core/Src/main.c ****   RCC_ClkInitStruct.APB2CLKDivider = RCC_HCLK_DIV1;
 1064              		.loc 1 362 3 is_stmt 1 view .LVU284
 362:Core/Src/main.c ****   RCC_ClkInitStruct.APB2CLKDivider = RCC_HCLK_DIV1;
 1065              		.loc 1 362 36 is_stmt 0 view .LVU285
 1066 004e 4FF48062 		mov	r2, #1024
 1067 0052 0A92     		str	r2, [sp, #40]
 363:Core/Src/main.c **** 
ARM GAS  C:\Users\User\AppData\Local\Temp\ccHVLSih.s 			page 30


 1068              		.loc 1 363 3 is_stmt 1 view .LVU286
 363:Core/Src/main.c **** 
 1069              		.loc 1 363 36 is_stmt 0 view .LVU287
 1070 0054 0B93     		str	r3, [sp, #44]
 365:Core/Src/main.c ****   {
 1071              		.loc 1 365 3 is_stmt 1 view .LVU288
 365:Core/Src/main.c ****   {
 1072              		.loc 1 365 7 is_stmt 0 view .LVU289
 1073 0056 07A8     		add	r0, sp, #28
 1074 0058 FFF7FEFF 		bl	HAL_RCC_ClockConfig
 1075              	.LVL59:
 365:Core/Src/main.c ****   {
 1076              		.loc 1 365 6 view .LVU290
 1077 005c 68B9     		cbnz	r0, .L78
 369:Core/Src/main.c ****   PeriphClkInit.Tim1ClockSelection = RCC_TIM1CLK_HCLK;
 1078              		.loc 1 369 3 is_stmt 1 view .LVU291
 369:Core/Src/main.c ****   PeriphClkInit.Tim1ClockSelection = RCC_TIM1CLK_HCLK;
 1079              		.loc 1 369 38 is_stmt 0 view .LVU292
 1080 005e 4FF48053 		mov	r3, #4096
 1081 0062 0193     		str	r3, [sp, #4]
 370:Core/Src/main.c ****   if (HAL_RCCEx_PeriphCLKConfig(&PeriphClkInit) != HAL_OK)
 1082              		.loc 1 370 3 is_stmt 1 view .LVU293
 370:Core/Src/main.c ****   if (HAL_RCCEx_PeriphCLKConfig(&PeriphClkInit) != HAL_OK)
 1083              		.loc 1 370 36 is_stmt 0 view .LVU294
 1084 0064 0023     		movs	r3, #0
 1085 0066 0693     		str	r3, [sp, #24]
 371:Core/Src/main.c ****   {
 1086              		.loc 1 371 3 is_stmt 1 view .LVU295
 371:Core/Src/main.c ****   {
 1087              		.loc 1 371 7 is_stmt 0 view .LVU296
 1088 0068 01A8     		add	r0, sp, #4
 1089 006a FFF7FEFF 		bl	HAL_RCCEx_PeriphCLKConfig
 1090              	.LVL60:
 371:Core/Src/main.c ****   {
 1091              		.loc 1 371 6 view .LVU297
 1092 006e 30B9     		cbnz	r0, .L79
 375:Core/Src/main.c **** 
 1093              		.loc 1 375 1 view .LVU298
 1094 0070 17B0     		add	sp, sp, #92
 1095              	.LCFI11:
 1096              		.cfi_remember_state
 1097              		.cfi_def_cfa_offset 4
 1098              		@ sp needed
 1099 0072 5DF804FB 		ldr	pc, [sp], #4
 1100              	.L77:
 1101              	.LCFI12:
 1102              		.cfi_restore_state
 353:Core/Src/main.c ****   }
 1103              		.loc 1 353 5 is_stmt 1 view .LVU299
 1104 0076 FFF7FEFF 		bl	Error_Handler
 1105              	.LVL61:
 1106              	.L78:
 367:Core/Src/main.c ****   }
 1107              		.loc 1 367 5 view .LVU300
 1108 007a FFF7FEFF 		bl	Error_Handler
 1109              	.LVL62:
 1110              	.L79:
ARM GAS  C:\Users\User\AppData\Local\Temp\ccHVLSih.s 			page 31


 373:Core/Src/main.c ****   }
 1111              		.loc 1 373 5 view .LVU301
 1112 007e FFF7FEFF 		bl	Error_Handler
 1113              	.LVL63:
 1114              		.cfi_endproc
 1115              	.LFE133:
 1117              		.section	.text.main,"ax",%progbits
 1118              		.align	1
 1119              		.global	main
 1120              		.syntax unified
 1121              		.thumb
 1122              		.thumb_func
 1124              	main:
 1125              	.LFB132:
 241:Core/Src/main.c ****   /* USER CODE BEGIN 1 */
 1126              		.loc 1 241 1 view -0
 1127              		.cfi_startproc
 1128              		@ Volatile: function does not return.
 1129              		@ args = 0, pretend = 0, frame = 0
 1130              		@ frame_needed = 0, uses_anonymous_args = 0
 1131 0000 08B5     		push	{r3, lr}
 1132              	.LCFI13:
 1133              		.cfi_def_cfa_offset 8
 1134              		.cfi_offset 3, -8
 1135              		.cfi_offset 14, -4
 248:Core/Src/main.c **** 
 1136              		.loc 1 248 3 view .LVU303
 1137 0002 FFF7FEFF 		bl	HAL_Init
 1138              	.LVL64:
 255:Core/Src/main.c **** 
 1139              		.loc 1 255 3 view .LVU304
 1140 0006 FFF7FEFF 		bl	SystemClock_Config
 1141              	.LVL65:
 262:Core/Src/main.c ****   MX_DMA_Init();
 1142              		.loc 1 262 3 view .LVU305
 1143 000a FFF7FEFF 		bl	MX_GPIO_Init
 1144              	.LVL66:
 263:Core/Src/main.c ****   MX_USART2_UART_Init();
 1145              		.loc 1 263 3 view .LVU306
 1146 000e FFF7FEFF 		bl	MX_DMA_Init
 1147              	.LVL67:
 264:Core/Src/main.c ****   MX_ADC1_Init();
 1148              		.loc 1 264 3 view .LVU307
 1149 0012 FFF7FEFF 		bl	MX_USART2_UART_Init
 1150              	.LVL68:
 265:Core/Src/main.c ****   MX_ADC2_Init();
 1151              		.loc 1 265 3 view .LVU308
 1152 0016 FFF7FEFF 		bl	MX_ADC1_Init
 1153              	.LVL69:
 266:Core/Src/main.c ****   MX_TIM1_Init();
 1154              		.loc 1 266 3 view .LVU309
 1155 001a FFF7FEFF 		bl	MX_ADC2_Init
 1156              	.LVL70:
 267:Core/Src/main.c ****   MX_TIM3_Init();
 1157              		.loc 1 267 3 view .LVU310
 1158 001e FFF7FEFF 		bl	MX_TIM1_Init
 1159              	.LVL71:
ARM GAS  C:\Users\User\AppData\Local\Temp\ccHVLSih.s 			page 32


 268:Core/Src/main.c ****   MX_TIM2_Init();
 1160              		.loc 1 268 3 view .LVU311
 1161 0022 FFF7FEFF 		bl	MX_TIM3_Init
 1162              	.LVL72:
 269:Core/Src/main.c ****   /* USER CODE BEGIN 2 */
 1163              		.loc 1 269 3 view .LVU312
 1164 0026 FFF7FEFF 		bl	MX_TIM2_Init
 1165              	.LVL73:
 271:Core/Src/main.c ****   HAL_GPIO_WritePin(LED_3_GPIO_Port,LED_3_Pin,1);
 1166              		.loc 1 271 3 view .LVU313
 1167 002a 564C     		ldr	r4, .L92
 1168 002c 0122     		movs	r2, #1
 1169 002e 2021     		movs	r1, #32
 1170 0030 2046     		mov	r0, r4
 1171 0032 FFF7FEFF 		bl	HAL_GPIO_WritePin
 1172              	.LVL74:
 272:Core/Src/main.c ****   HAL_GPIO_WritePin(LED_4_GPIO_Port,LED_4_Pin,1);
 1173              		.loc 1 272 3 view .LVU314
 1174 0036 0122     		movs	r2, #1
 1175 0038 4021     		movs	r1, #64
 1176 003a 2046     		mov	r0, r4
 1177 003c FFF7FEFF 		bl	HAL_GPIO_WritePin
 1178              	.LVL75:
 273:Core/Src/main.c ****   HAL_TIM_Base_Start_IT(&htim2);
 1179              		.loc 1 273 3 view .LVU315
 1180 0040 0122     		movs	r2, #1
 1181 0042 8021     		movs	r1, #128
 1182 0044 2046     		mov	r0, r4
 1183 0046 FFF7FEFF 		bl	HAL_GPIO_WritePin
 1184              	.LVL76:
 274:Core/Src/main.c ****   HAL_TIM_Base_Start_IT(&htim3);
 1185              		.loc 1 274 3 view .LVU316
 1186 004a 4F48     		ldr	r0, .L92+4
 1187 004c FFF7FEFF 		bl	HAL_TIM_Base_Start_IT
 1188              	.LVL77:
 275:Core/Src/main.c ****   if(HAL_TIM_PWM_Start(&htim1, TIM_CHANNEL_1) != HAL_OK) { Error_Handler(); }
 1189              		.loc 1 275 3 view .LVU317
 1190 0050 4E48     		ldr	r0, .L92+8
 1191 0052 FFF7FEFF 		bl	HAL_TIM_Base_Start_IT
 1192              	.LVL78:
 276:Core/Src/main.c ****   HAL_GPIO_WritePin(LED_4_GPIO_Port,LED_4_Pin,0);
 1193              		.loc 1 276 3 view .LVU318
 276:Core/Src/main.c ****   HAL_GPIO_WritePin(LED_4_GPIO_Port,LED_4_Pin,0);
 1194              		.loc 1 276 6 is_stmt 0 view .LVU319
 1195 0056 0021     		movs	r1, #0
 1196 0058 4D48     		ldr	r0, .L92+12
 1197 005a FFF7FEFF 		bl	HAL_TIM_PWM_Start
 1198              	.LVL79:
 276:Core/Src/main.c ****   HAL_GPIO_WritePin(LED_4_GPIO_Port,LED_4_Pin,0);
 1199              		.loc 1 276 5 view .LVU320
 1200 005e 08B1     		cbz	r0, .L81
 276:Core/Src/main.c ****   HAL_GPIO_WritePin(LED_4_GPIO_Port,LED_4_Pin,0);
 1201              		.loc 1 276 60 is_stmt 1 discriminator 1 view .LVU321
 1202 0060 FFF7FEFF 		bl	Error_Handler
 1203              	.LVL80:
 1204              	.L81:
 277:Core/Src/main.c ****   if(HAL_TIM_PWM_Start(&htim1, TIM_CHANNEL_3) != HAL_OK) { Error_Handler(); }
ARM GAS  C:\Users\User\AppData\Local\Temp\ccHVLSih.s 			page 33


 1205              		.loc 1 277 3 view .LVU322
 1206 0064 0022     		movs	r2, #0
 1207 0066 8021     		movs	r1, #128
 1208 0068 4648     		ldr	r0, .L92
 1209 006a FFF7FEFF 		bl	HAL_GPIO_WritePin
 1210              	.LVL81:
 278:Core/Src/main.c ****   HAL_GPIO_WritePin(LED_3_GPIO_Port,LED_3_Pin,0);
 1211              		.loc 1 278 3 view .LVU323
 278:Core/Src/main.c ****   HAL_GPIO_WritePin(LED_3_GPIO_Port,LED_3_Pin,0);
 1212              		.loc 1 278 6 is_stmt 0 view .LVU324
 1213 006e 0821     		movs	r1, #8
 1214 0070 4748     		ldr	r0, .L92+12
 1215 0072 FFF7FEFF 		bl	HAL_TIM_PWM_Start
 1216              	.LVL82:
 278:Core/Src/main.c ****   HAL_GPIO_WritePin(LED_3_GPIO_Port,LED_3_Pin,0);
 1217              		.loc 1 278 5 view .LVU325
 1218 0076 08B1     		cbz	r0, .L82
 278:Core/Src/main.c ****   HAL_GPIO_WritePin(LED_3_GPIO_Port,LED_3_Pin,0);
 1219              		.loc 1 278 60 is_stmt 1 discriminator 1 view .LVU326
 1220 0078 FFF7FEFF 		bl	Error_Handler
 1221              	.LVL83:
 1222              	.L82:
 279:Core/Src/main.c ****   if(HAL_ADC_Start_DMA(&hadc1, (uint32_t *) analog1, 2) != HAL_OK){
 1223              		.loc 1 279 3 view .LVU327
 1224 007c 0022     		movs	r2, #0
 1225 007e 4021     		movs	r1, #64
 1226 0080 4048     		ldr	r0, .L92
 1227 0082 FFF7FEFF 		bl	HAL_GPIO_WritePin
 1228              	.LVL84:
 280:Core/Src/main.c ****     Error_Handler();
 1229              		.loc 1 280 3 view .LVU328
 280:Core/Src/main.c ****     Error_Handler();
 1230              		.loc 1 280 6 is_stmt 0 view .LVU329
 1231 0086 0222     		movs	r2, #2
 1232 0088 4249     		ldr	r1, .L92+16
 1233 008a 4348     		ldr	r0, .L92+20
 1234 008c FFF7FEFF 		bl	HAL_ADC_Start_DMA
 1235              	.LVL85:
 280:Core/Src/main.c ****     Error_Handler();
 1236              		.loc 1 280 5 view .LVU330
 1237 0090 08B1     		cbz	r0, .L83
 281:Core/Src/main.c ****   }
 1238              		.loc 1 281 5 is_stmt 1 view .LVU331
 1239 0092 FFF7FEFF 		bl	Error_Handler
 1240              	.LVL86:
 1241              	.L83:
 283:Core/Src/main.c ****   if(HAL_ADC_Start_DMA(&hadc2, (uint32_t *) analog2, 3) != HAL_OK){
 1242              		.loc 1 283 3 view .LVU332
 1243 0096 0022     		movs	r2, #0
 1244 0098 2021     		movs	r1, #32
 1245 009a 3A48     		ldr	r0, .L92
 1246 009c FFF7FEFF 		bl	HAL_GPIO_WritePin
 1247              	.LVL87:
 284:Core/Src/main.c ****     Error_Handler();
 1248              		.loc 1 284 3 view .LVU333
 284:Core/Src/main.c ****     Error_Handler();
 1249              		.loc 1 284 6 is_stmt 0 view .LVU334
ARM GAS  C:\Users\User\AppData\Local\Temp\ccHVLSih.s 			page 34


 1250 00a0 0322     		movs	r2, #3
 1251 00a2 3E49     		ldr	r1, .L92+24
 1252 00a4 3E48     		ldr	r0, .L92+28
 1253 00a6 FFF7FEFF 		bl	HAL_ADC_Start_DMA
 1254              	.LVL88:
 284:Core/Src/main.c ****     Error_Handler();
 1255              		.loc 1 284 5 view .LVU335
 1256 00aa 08B3     		cbz	r0, .L84
 285:Core/Src/main.c ****   }
 1257              		.loc 1 285 5 is_stmt 1 view .LVU336
 1258 00ac FFF7FEFF 		bl	Error_Handler
 1259              	.LVL89:
 1260              	.L85:
 289:Core/Src/main.c ****       __HAL_TIM_SET_COMPARE(&htim1, TIM_CHANNEL_1,0);
 1261              		.loc 1 289 7 view .LVU337
 1262 00b0 0122     		movs	r2, #1
 1263 00b2 4FF48051 		mov	r1, #4096
 1264 00b6 4FF09040 		mov	r0, #1207959552
 1265 00ba FFF7FEFF 		bl	HAL_GPIO_WritePin
 1266              	.LVL90:
 290:Core/Src/main.c ****       HAL_GPIO_WritePin(GPIOA, GPIO_PIN_9, 0);
 1267              		.loc 1 290 7 view .LVU338
 1268 00be 344D     		ldr	r5, .L92+12
 1269 00c0 2B68     		ldr	r3, [r5]
 1270 00c2 0024     		movs	r4, #0
 1271 00c4 5C63     		str	r4, [r3, #52]
 291:Core/Src/main.c ****       __HAL_TIM_SET_COMPARE(&htim1, TIM_CHANNEL_3,0);
 1272              		.loc 1 291 7 view .LVU339
 1273 00c6 2246     		mov	r2, r4
 1274 00c8 4FF40071 		mov	r1, #512
 1275 00cc 4FF09040 		mov	r0, #1207959552
 1276 00d0 FFF7FEFF 		bl	HAL_GPIO_WritePin
 1277              	.LVL91:
 292:Core/Src/main.c ****       button_state = HAL_GPIO_ReadPin(KEY1_GPIO_Port,KEY1_Pin);
 1278              		.loc 1 292 7 view .LVU340
 1279 00d4 2B68     		ldr	r3, [r5]
 1280 00d6 DC63     		str	r4, [r3, #60]
 293:Core/Src/main.c ****       HAL_GPIO_WritePin(LED_3_GPIO_Port,LED_3_Pin,0);
 1281              		.loc 1 293 7 view .LVU341
 293:Core/Src/main.c ****       HAL_GPIO_WritePin(LED_3_GPIO_Port,LED_3_Pin,0);
 1282              		.loc 1 293 22 is_stmt 0 view .LVU342
 1283 00d8 2A4D     		ldr	r5, .L92
 1284 00da 0821     		movs	r1, #8
 1285 00dc 2846     		mov	r0, r5
 1286 00de FFF7FEFF 		bl	HAL_GPIO_ReadPin
 1287              	.LVL92:
 293:Core/Src/main.c ****       HAL_GPIO_WritePin(LED_3_GPIO_Port,LED_3_Pin,0);
 1288              		.loc 1 293 20 view .LVU343
 1289 00e2 304B     		ldr	r3, .L92+32
 1290 00e4 1870     		strb	r0, [r3]
 294:Core/Src/main.c ****     }
 1291              		.loc 1 294 7 is_stmt 1 view .LVU344
 1292 00e6 2246     		mov	r2, r4
 1293 00e8 4021     		movs	r1, #64
 1294 00ea 2846     		mov	r0, r5
 1295 00ec FFF7FEFF 		bl	HAL_GPIO_WritePin
 1296              	.LVL93:
ARM GAS  C:\Users\User\AppData\Local\Temp\ccHVLSih.s 			page 35


 1297              	.L84:
 288:Core/Src/main.c ****       HAL_GPIO_WritePin(GPIOA, GPIO_PIN_12, 1);
 1298              		.loc 1 288 10 view .LVU345
 288:Core/Src/main.c ****       HAL_GPIO_WritePin(GPIOA, GPIO_PIN_12, 1);
 1299              		.loc 1 288 11 is_stmt 0 view .LVU346
 1300 00f0 2C4B     		ldr	r3, .L92+32
 1301 00f2 1B78     		ldrb	r3, [r3]	@ zero_extendqisi2
 288:Core/Src/main.c ****       HAL_GPIO_WritePin(GPIOA, GPIO_PIN_12, 1);
 1302              		.loc 1 288 10 view .LVU347
 1303 00f4 002B     		cmp	r3, #0
 1304 00f6 DBD1     		bne	.L85
 296:Core/Src/main.c ****     button_state=1;
 1305              		.loc 1 296 5 is_stmt 1 view .LVU348
 1306 00f8 4FF47A70 		mov	r0, #1000
 1307 00fc FFF7FEFF 		bl	HAL_Delay
 1308              	.LVL94:
 297:Core/Src/main.c **** 
 1309              		.loc 1 297 5 view .LVU349
 297:Core/Src/main.c **** 
 1310              		.loc 1 297 17 is_stmt 0 view .LVU350
 1311 0100 284B     		ldr	r3, .L92+32
 1312 0102 0122     		movs	r2, #1
 1313 0104 1A70     		strb	r2, [r3]
 1314 0106 11E0     		b	.L89
 1315              	.L91:
 316:Core/Src/main.c ****         HAL_GPIO_TogglePin(LED_2_GPIO_Port,LED_2_Pin);
 1316              		.loc 1 316 9 is_stmt 1 view .LVU351
 316:Core/Src/main.c ****         HAL_GPIO_TogglePin(LED_2_GPIO_Port,LED_2_Pin);
 1317              		.loc 1 316 18 is_stmt 0 view .LVU352
 1318 0108 274B     		ldr	r3, .L92+36
 1319 010a 42F60412 		movw	r2, #10500
 1320 010e 1A60     		str	r2, [r3]
 317:Core/Src/main.c ****         HAL_GPIO_WritePin(LED_4_GPIO_Port,LED_4_Pin,0);
 1321              		.loc 1 317 9 is_stmt 1 view .LVU353
 1322 0110 1C4C     		ldr	r4, .L92
 1323 0112 2021     		movs	r1, #32
 1324 0114 2046     		mov	r0, r4
 1325 0116 FFF7FEFF 		bl	HAL_GPIO_TogglePin
 1326              	.LVL95:
 318:Core/Src/main.c ****       }else{
 1327              		.loc 1 318 9 view .LVU354
 1328 011a 0022     		movs	r2, #0
 1329 011c 8021     		movs	r1, #128
 1330 011e 2046     		mov	r0, r4
 1331 0120 FFF7FEFF 		bl	HAL_GPIO_WritePin
 1332              	.LVL96:
 1333              	.L87:
 326:Core/Src/main.c ****     }
 1334              		.loc 1 326 3 view .LVU355
 326:Core/Src/main.c ****     }
 1335              		.loc 1 326 6 is_stmt 0 view .LVU356
 1336 0124 1F4B     		ldr	r3, .L92+32
 1337 0126 1B78     		ldrb	r3, [r3]	@ zero_extendqisi2
 326:Core/Src/main.c ****     }
 1338              		.loc 1 326 5 view .LVU357
 1339 0128 002B     		cmp	r3, #0
 1340 012a E1D0     		beq	.L84
ARM GAS  C:\Users\User\AppData\Local\Temp\ccHVLSih.s 			page 36


 1341              	.L89:
 305:Core/Src/main.c ****     {
 1342              		.loc 1 305 5 is_stmt 1 view .LVU358
 310:Core/Src/main.c ****       __HAL_TIM_SET_COMPARE(&htim1, TIM_CHANNEL_1,MotorL);
 1343              		.loc 1 310 7 view .LVU359
 1344 012c 0122     		movs	r2, #1
 1345 012e 4FF48051 		mov	r1, #4096
 1346 0132 4FF09040 		mov	r0, #1207959552
 1347 0136 FFF7FEFF 		bl	HAL_GPIO_WritePin
 1348              	.LVL97:
 311:Core/Src/main.c ****       HAL_GPIO_WritePin(GPIOA, GPIO_PIN_9, 0);
 1349              		.loc 1 311 7 view .LVU360
 1350 013a 154C     		ldr	r4, .L92+12
 1351 013c 2368     		ldr	r3, [r4]
 1352 013e 1B4A     		ldr	r2, .L92+40
 1353 0140 1268     		ldr	r2, [r2]
 1354 0142 5A63     		str	r2, [r3, #52]
 312:Core/Src/main.c ****       __HAL_TIM_SET_COMPARE(&htim1, TIM_CHANNEL_3,MotorR);
 1355              		.loc 1 312 7 view .LVU361
 1356 0144 0022     		movs	r2, #0
 1357 0146 4FF40071 		mov	r1, #512
 1358 014a 4FF09040 		mov	r0, #1207959552
 1359 014e FFF7FEFF 		bl	HAL_GPIO_WritePin
 1360              	.LVL98:
 313:Core/Src/main.c **** 
 1361              		.loc 1 313 7 view .LVU362
 1362 0152 2368     		ldr	r3, [r4]
 1363 0154 164A     		ldr	r2, .L92+44
 1364 0156 1268     		ldr	r2, [r2]
 1365 0158 DA63     		str	r2, [r3, #60]
 315:Core/Src/main.c ****         CommSpeed=10500;
 1366              		.loc 1 315 7 view .LVU363
 315:Core/Src/main.c ****         CommSpeed=10500;
 1367              		.loc 1 315 22 is_stmt 0 view .LVU364
 1368 015a 164B     		ldr	r3, .L92+48
 1369 015c 1A68     		ldr	r2, [r3]
 315:Core/Src/main.c ****         CommSpeed=10500;
 1370              		.loc 1 315 9 view .LVU365
 1371 015e 40F6F513 		movw	r3, #2549
 1372 0162 9A42     		cmp	r2, r3
 1373 0164 D0DD     		ble	.L91
 320:Core/Src/main.c ****         HAL_GPIO_TogglePin(LED_4_GPIO_Port,LED_4_Pin);
 1374              		.loc 1 320 9 is_stmt 1 view .LVU366
 320:Core/Src/main.c ****         HAL_GPIO_TogglePin(LED_4_GPIO_Port,LED_4_Pin);
 1375              		.loc 1 320 18 is_stmt 0 view .LVU367
 1376 0166 104B     		ldr	r3, .L92+36
 1377 0168 42F22832 		movw	r2, #9000
 1378 016c 1A60     		str	r2, [r3]
 321:Core/Src/main.c ****         HAL_GPIO_WritePin(LED_2_GPIO_Port,LED_2_Pin,0);
 1379              		.loc 1 321 9 is_stmt 1 view .LVU368
 1380 016e 054C     		ldr	r4, .L92
 1381 0170 8021     		movs	r1, #128
 1382 0172 2046     		mov	r0, r4
 1383 0174 FFF7FEFF 		bl	HAL_GPIO_TogglePin
 1384              	.LVL99:
 322:Core/Src/main.c ****       }
 1385              		.loc 1 322 9 view .LVU369
ARM GAS  C:\Users\User\AppData\Local\Temp\ccHVLSih.s 			page 37


 1386 0178 0022     		movs	r2, #0
 1387 017a 2021     		movs	r1, #32
 1388 017c 2046     		mov	r0, r4
 1389 017e FFF7FEFF 		bl	HAL_GPIO_WritePin
 1390              	.LVL100:
 1391 0182 CFE7     		b	.L87
 1392              	.L93:
 1393              		.align	2
 1394              	.L92:
 1395 0184 00040048 		.word	1207960576
 1396 0188 00000000 		.word	htim2
 1397 018c 00000000 		.word	htim3
 1398 0190 00000000 		.word	htim1
 1399 0194 00000000 		.word	.LANCHOR11
 1400 0198 00000000 		.word	hadc1
 1401 019c 00000000 		.word	.LANCHOR12
 1402 01a0 00000000 		.word	hadc2
 1403 01a4 00000000 		.word	.LANCHOR25
 1404 01a8 00000000 		.word	.LANCHOR14
 1405 01ac 00000000 		.word	.LANCHOR20
 1406 01b0 00000000 		.word	.LANCHOR19
 1407 01b4 00000000 		.word	.LANCHOR9
 1408              		.cfi_endproc
 1409              	.LFE132:
 1411              		.global	button_state
 1412              		.global	analog2
 1413              		.global	analog1
 1414              		.global	buf
 1415              		.global	CommSpeed
 1416              		.global	Stime
 1417              		.global	stopFlg
 1418              		.global	timeFlg
 1419              		.global	turnFlg
 1420              		.global	SensVal_IBuf
 1421              		.global	SensVal_I
 1422              		.global	DGainCLB
 1423              		.global	IGainCLB
 1424              		.global	PGainCLB
 1425              		.global	FlagR
 1426              		.global	FlagL
 1427              		.global	Flag
 1428              		.global	Curve_Sens
 1429              		.global	Side_SensL
 1430              		.global	Side_SensR
 1431              		.global	SensL
 1432              		.global	SensR
 1433              		.global	Curve_Sensor
 1434              		.global	Side_SensorL
 1435              		.global	Side_SensorR
 1436              		.global	SensorL
 1437              		.global	SensorR
 1438              		.global	SensValBuf
 1439              		.global	ErrFlg
 1440              		.global	MotorR
 1441              		.global	MotorL
 1442              		.global	MotorR_Rev
 1443              		.global	MotorL_Rev
ARM GAS  C:\Users\User\AppData\Local\Temp\ccHVLSih.s 			page 38


 1444              		.global	ledval
 1445              		.global	timer1
 1446              		.section	.bss.Curve_Sens,"aw",%nobits
 1447              		.align	2
 1448              		.set	.LANCHOR6,. + 0
 1451              	Curve_Sens:
 1452 0000 00000000 		.space	36
 1452      00000000 
 1452      00000000 
 1452      00000000 
 1452      00000000 
 1453              		.section	.bss.Curve_Sensor,"aw",%nobits
 1454              		.align	2
 1455              		.set	.LANCHOR9,. + 0
 1458              	Curve_Sensor:
 1459 0000 00000000 		.space	4
 1460              		.section	.bss.DGainCLB,"aw",%nobits
 1461              		.align	3
 1464              	DGainCLB:
 1465 0000 00000000 		.space	8
 1465      00000000 
 1466              		.section	.bss.ErrFlg,"aw",%nobits
 1467              		.align	2
 1470              	ErrFlg:
 1471 0000 00000000 		.space	4
 1472              		.section	.bss.Flag,"aw",%nobits
 1473              		.align	2
 1474              		.set	.LANCHOR22,. + 0
 1477              	Flag:
 1478 0000 00000000 		.space	4
 1479              		.section	.bss.FlagL,"aw",%nobits
 1480              		.align	2
 1481              		.set	.LANCHOR23,. + 0
 1484              	FlagL:
 1485 0000 00000000 		.space	4
 1486              		.section	.bss.FlagR,"aw",%nobits
 1487              		.align	2
 1488              		.set	.LANCHOR24,. + 0
 1491              	FlagR:
 1492 0000 00000000 		.space	4
 1493              		.section	.bss.IGainCLB,"aw",%nobits
 1494              		.align	3
 1497              	IGainCLB:
 1498 0000 00000000 		.space	8
 1498      00000000 
 1499              		.section	.bss.MotorL,"aw",%nobits
 1500              		.align	2
 1501              		.set	.LANCHOR20,. + 0
 1504              	MotorL:
 1505 0000 00000000 		.space	4
 1506              		.section	.bss.MotorL_Rev,"aw",%nobits
 1507              		.align	2
 1510              	MotorL_Rev:
 1511 0000 00000000 		.space	4
 1512              		.section	.bss.MotorR,"aw",%nobits
 1513              		.align	2
 1514              		.set	.LANCHOR19,. + 0
ARM GAS  C:\Users\User\AppData\Local\Temp\ccHVLSih.s 			page 39


 1517              	MotorR:
 1518 0000 00000000 		.space	4
 1519              		.section	.bss.MotorR_Rev,"aw",%nobits
 1520              		.align	2
 1523              	MotorR_Rev:
 1524 0000 00000000 		.space	4
 1525              		.section	.bss.PGainCLB,"aw",%nobits
 1526              		.align	3
 1529              	PGainCLB:
 1530 0000 00000000 		.space	8
 1530      00000000 
 1531              		.section	.bss.SensL,"aw",%nobits
 1532              		.align	2
 1533              		.set	.LANCHOR1,. + 0
 1536              	SensL:
 1537 0000 00000000 		.space	36
 1537      00000000 
 1537      00000000 
 1537      00000000 
 1537      00000000 
 1538              		.section	.bss.SensR,"aw",%nobits
 1539              		.align	2
 1540              		.set	.LANCHOR0,. + 0
 1543              	SensR:
 1544 0000 00000000 		.space	36
 1544      00000000 
 1544      00000000 
 1544      00000000 
 1544      00000000 
 1545              		.section	.bss.SensValBuf,"aw",%nobits
 1546              		.align	2
 1547              		.set	.LANCHOR18,. + 0
 1550              	SensValBuf:
 1551 0000 00000000 		.space	4
 1552              		.section	.bss.SensVal_I,"aw",%nobits
 1553              		.align	3
 1554              		.set	.LANCHOR16,. + 0
 1557              	SensVal_I:
 1558 0000 00000000 		.space	8
 1558      00000000 
 1559              		.section	.bss.SensVal_IBuf,"aw",%nobits
 1560              		.align	3
 1561              		.set	.LANCHOR17,. + 0
 1564              	SensVal_IBuf:
 1565 0000 00000000 		.space	8
 1565      00000000 
 1566              		.section	.bss.SensorL,"aw",%nobits
 1567              		.align	2
 1568              		.set	.LANCHOR3,. + 0
 1571              	SensorL:
 1572 0000 00000000 		.space	4
 1573              		.section	.bss.SensorR,"aw",%nobits
 1574              		.align	2
 1575              		.set	.LANCHOR2,. + 0
 1578              	SensorR:
 1579 0000 00000000 		.space	4
 1580              		.section	.bss.Side_SensL,"aw",%nobits
ARM GAS  C:\Users\User\AppData\Local\Temp\ccHVLSih.s 			page 40


 1581              		.align	2
 1582              		.set	.LANCHOR5,. + 0
 1585              	Side_SensL:
 1586 0000 00000000 		.space	36
 1586      00000000 
 1586      00000000 
 1586      00000000 
 1586      00000000 
 1587              		.section	.bss.Side_SensR,"aw",%nobits
 1588              		.align	2
 1589              		.set	.LANCHOR4,. + 0
 1592              	Side_SensR:
 1593 0000 00000000 		.space	36
 1593      00000000 
 1593      00000000 
 1593      00000000 
 1593      00000000 
 1594              		.section	.bss.Side_SensorL,"aw",%nobits
 1595              		.align	2
 1596              		.set	.LANCHOR8,. + 0
 1599              	Side_SensorL:
 1600 0000 00000000 		.space	4
 1601              		.section	.bss.Side_SensorR,"aw",%nobits
 1602              		.align	2
 1603              		.set	.LANCHOR7,. + 0
 1606              	Side_SensorR:
 1607 0000 00000000 		.space	4
 1608              		.section	.bss.Stime,"aw",%nobits
 1609              		.set	.LANCHOR10,. + 0
 1612              	Stime:
 1613 0000 00       		.space	1
 1614              		.section	.bss.analog1,"aw",%nobits
 1615              		.align	2
 1616              		.set	.LANCHOR11,. + 0
 1619              	analog1:
 1620 0000 00000000 		.space	4
 1621              		.section	.bss.analog2,"aw",%nobits
 1622              		.align	2
 1623              		.set	.LANCHOR12,. + 0
 1626              	analog2:
 1627 0000 00000000 		.space	6
 1627      0000
 1628              		.section	.bss.buf,"aw",%nobits
 1629              		.align	2
 1632              	buf:
 1633 0000 00       		.space	1
 1634              		.section	.bss.stopFlg,"aw",%nobits
 1635              		.set	.LANCHOR13,. + 0
 1638              	stopFlg:
 1639 0000 00       		.space	1
 1640              		.section	.bss.timeFlg,"aw",%nobits
 1643              	timeFlg:
 1644 0000 00       		.space	1
 1645              		.section	.bss.timer1,"aw",%nobits
 1646              		.align	2
 1649              	timer1:
 1650 0000 00000000 		.space	4
ARM GAS  C:\Users\User\AppData\Local\Temp\ccHVLSih.s 			page 41


 1651              		.section	.bss.turnFlg,"aw",%nobits
 1652              		.set	.LANCHOR15,. + 0
 1655              	turnFlg:
 1656 0000 00       		.space	1
 1657              		.section	.data.CommSpeed,"aw"
 1658              		.align	2
 1659              		.set	.LANCHOR14,. + 0
 1662              	CommSpeed:
 1663 0000 1C250000 		.word	9500
 1664              		.section	.data.button_state,"aw"
 1665              		.set	.LANCHOR25,. + 0
 1668              	button_state:
 1669 0000 01       		.byte	1
 1670              		.section	.data.ledval,"aw"
 1671              		.align	2
 1672              		.set	.LANCHOR21,. + 0
 1675              	ledval:
 1676 0000 01000000 		.word	1
 1677              		.text
 1678              	.Letext0:
 1679              		.file 3 "c:\\tools\\gcc-arm-none-eabi-10.3-2021.10\\arm-none-eabi\\include\\machine\\_default_type
 1680              		.file 4 "c:\\tools\\gcc-arm-none-eabi-10.3-2021.10\\arm-none-eabi\\include\\sys\\_stdint.h"
 1681              		.file 5 "Drivers/CMSIS/Device/ST/STM32F3xx/Include/stm32f303x8.h"
 1682              		.file 6 "Drivers/CMSIS/Device/ST/STM32F3xx/Include/stm32f3xx.h"
 1683              		.file 7 "Drivers/STM32F3xx_HAL_Driver/Inc/stm32f3xx_hal_def.h"
 1684              		.file 8 "Drivers/STM32F3xx_HAL_Driver/Inc/stm32f3xx_hal_rcc.h"
 1685              		.file 9 "Drivers/STM32F3xx_HAL_Driver/Inc/stm32f3xx_hal_rcc_ex.h"
 1686              		.file 10 "Drivers/STM32F3xx_HAL_Driver/Inc/stm32f3xx_hal_dma.h"
 1687              		.file 11 "Drivers/STM32F3xx_HAL_Driver/Inc/stm32f3xx_hal_adc_ex.h"
 1688              		.file 12 "Drivers/STM32F3xx_HAL_Driver/Inc/stm32f3xx_hal_adc.h"
 1689              		.file 13 "Drivers/STM32F3xx_HAL_Driver/Inc/stm32f3xx_hal_tim.h"
 1690              		.file 14 "Drivers/STM32F3xx_HAL_Driver/Inc/stm32f3xx_hal_uart.h"
 1691              		.file 15 "Core/Inc/adc.h"
 1692              		.file 16 "Core/Inc/tim.h"
 1693              		.file 17 "Core/Inc/usart.h"
 1694              		.file 18 "Drivers/STM32F3xx_HAL_Driver/Inc/stm32f3xx_hal.h"
 1695              		.file 19 "Core/Inc/gpio.h"
 1696              		.file 20 "Core/Inc/dma.h"
 1697              		.file 21 "Drivers/STM32F3xx_HAL_Driver/Inc/stm32f3xx_hal_gpio.h"
 1698              		.file 22 "<built-in>"
ARM GAS  C:\Users\User\AppData\Local\Temp\ccHVLSih.s 			page 42


DEFINED SYMBOLS
                            *ABS*:00000000 main.c
C:\Users\User\AppData\Local\Temp\ccHVLSih.s:20     .text.SensUp:00000000 $t
C:\Users\User\AppData\Local\Temp\ccHVLSih.s:26     .text.SensUp:00000000 SensUp
C:\Users\User\AppData\Local\Temp\ccHVLSih.s:134    .text.SensUp:00000068 $d
C:\Users\User\AppData\Local\Temp\ccHVLSih.s:142    .text.Side_SensUp:00000000 $t
C:\Users\User\AppData\Local\Temp\ccHVLSih.s:148    .text.Side_SensUp:00000000 Side_SensUp
C:\Users\User\AppData\Local\Temp\ccHVLSih.s:282    .text.Side_SensUp:00000088 $d
C:\Users\User\AppData\Local\Temp\ccHVLSih.s:292    .text.sensGet:00000000 $t
C:\Users\User\AppData\Local\Temp\ccHVLSih.s:298    .text.sensGet:00000000 sensGet
C:\Users\User\AppData\Local\Temp\ccHVLSih.s:370    .text.sensGet:0000004c $d
C:\Users\User\AppData\Local\Temp\ccHVLSih.s:390    .text.LineTrace:00000000 $t
C:\Users\User\AppData\Local\Temp\ccHVLSih.s:396    .text.LineTrace:00000000 LineTrace
C:\Users\User\AppData\Local\Temp\ccHVLSih.s:690    .text.LineTrace:00000198 $d
C:\Users\User\AppData\Local\Temp\ccHVLSih.s:715    .text.stop:00000000 $t
C:\Users\User\AppData\Local\Temp\ccHVLSih.s:721    .text.stop:00000000 stop
C:\Users\User\AppData\Local\Temp\ccHVLSih.s:823    .text.stop:00000070 $d
C:\Users\User\AppData\Local\Temp\ccHVLSih.s:833    .text.HAL_TIM_PeriodElapsedCallback:00000000 $t
C:\Users\User\AppData\Local\Temp\ccHVLSih.s:839    .text.HAL_TIM_PeriodElapsedCallback:00000000 HAL_TIM_PeriodElapsedCallback
C:\Users\User\AppData\Local\Temp\ccHVLSih.s:896    .text.HAL_TIM_PeriodElapsedCallback:00000030 $d
C:\Users\User\AppData\Local\Temp\ccHVLSih.s:901    .text._write:00000000 $t
C:\Users\User\AppData\Local\Temp\ccHVLSih.s:907    .text._write:00000000 _write
C:\Users\User\AppData\Local\Temp\ccHVLSih.s:940    .text._write:00000014 $d
C:\Users\User\AppData\Local\Temp\ccHVLSih.s:945    .text.Error_Handler:00000000 $t
C:\Users\User\AppData\Local\Temp\ccHVLSih.s:951    .text.Error_Handler:00000000 Error_Handler
C:\Users\User\AppData\Local\Temp\ccHVLSih.s:983    .text.SystemClock_Config:00000000 $t
C:\Users\User\AppData\Local\Temp\ccHVLSih.s:989    .text.SystemClock_Config:00000000 SystemClock_Config
C:\Users\User\AppData\Local\Temp\ccHVLSih.s:1118   .text.main:00000000 $t
C:\Users\User\AppData\Local\Temp\ccHVLSih.s:1124   .text.main:00000000 main
C:\Users\User\AppData\Local\Temp\ccHVLSih.s:1395   .text.main:00000184 $d
C:\Users\User\AppData\Local\Temp\ccHVLSih.s:1668   .data.button_state:00000000 button_state
C:\Users\User\AppData\Local\Temp\ccHVLSih.s:1626   .bss.analog2:00000000 analog2
C:\Users\User\AppData\Local\Temp\ccHVLSih.s:1619   .bss.analog1:00000000 analog1
C:\Users\User\AppData\Local\Temp\ccHVLSih.s:1632   .bss.buf:00000000 buf
C:\Users\User\AppData\Local\Temp\ccHVLSih.s:1662   .data.CommSpeed:00000000 CommSpeed
C:\Users\User\AppData\Local\Temp\ccHVLSih.s:1612   .bss.Stime:00000000 Stime
C:\Users\User\AppData\Local\Temp\ccHVLSih.s:1638   .bss.stopFlg:00000000 stopFlg
C:\Users\User\AppData\Local\Temp\ccHVLSih.s:1643   .bss.timeFlg:00000000 timeFlg
C:\Users\User\AppData\Local\Temp\ccHVLSih.s:1655   .bss.turnFlg:00000000 turnFlg
C:\Users\User\AppData\Local\Temp\ccHVLSih.s:1564   .bss.SensVal_IBuf:00000000 SensVal_IBuf
C:\Users\User\AppData\Local\Temp\ccHVLSih.s:1557   .bss.SensVal_I:00000000 SensVal_I
C:\Users\User\AppData\Local\Temp\ccHVLSih.s:1464   .bss.DGainCLB:00000000 DGainCLB
C:\Users\User\AppData\Local\Temp\ccHVLSih.s:1497   .bss.IGainCLB:00000000 IGainCLB
C:\Users\User\AppData\Local\Temp\ccHVLSih.s:1529   .bss.PGainCLB:00000000 PGainCLB
C:\Users\User\AppData\Local\Temp\ccHVLSih.s:1491   .bss.FlagR:00000000 FlagR
C:\Users\User\AppData\Local\Temp\ccHVLSih.s:1484   .bss.FlagL:00000000 FlagL
C:\Users\User\AppData\Local\Temp\ccHVLSih.s:1477   .bss.Flag:00000000 Flag
C:\Users\User\AppData\Local\Temp\ccHVLSih.s:1451   .bss.Curve_Sens:00000000 Curve_Sens
C:\Users\User\AppData\Local\Temp\ccHVLSih.s:1585   .bss.Side_SensL:00000000 Side_SensL
C:\Users\User\AppData\Local\Temp\ccHVLSih.s:1592   .bss.Side_SensR:00000000 Side_SensR
C:\Users\User\AppData\Local\Temp\ccHVLSih.s:1536   .bss.SensL:00000000 SensL
C:\Users\User\AppData\Local\Temp\ccHVLSih.s:1543   .bss.SensR:00000000 SensR
C:\Users\User\AppData\Local\Temp\ccHVLSih.s:1458   .bss.Curve_Sensor:00000000 Curve_Sensor
C:\Users\User\AppData\Local\Temp\ccHVLSih.s:1599   .bss.Side_SensorL:00000000 Side_SensorL
C:\Users\User\AppData\Local\Temp\ccHVLSih.s:1606   .bss.Side_SensorR:00000000 Side_SensorR
C:\Users\User\AppData\Local\Temp\ccHVLSih.s:1571   .bss.SensorL:00000000 SensorL
C:\Users\User\AppData\Local\Temp\ccHVLSih.s:1578   .bss.SensorR:00000000 SensorR
ARM GAS  C:\Users\User\AppData\Local\Temp\ccHVLSih.s 			page 43


C:\Users\User\AppData\Local\Temp\ccHVLSih.s:1550   .bss.SensValBuf:00000000 SensValBuf
C:\Users\User\AppData\Local\Temp\ccHVLSih.s:1470   .bss.ErrFlg:00000000 ErrFlg
C:\Users\User\AppData\Local\Temp\ccHVLSih.s:1517   .bss.MotorR:00000000 MotorR
C:\Users\User\AppData\Local\Temp\ccHVLSih.s:1504   .bss.MotorL:00000000 MotorL
C:\Users\User\AppData\Local\Temp\ccHVLSih.s:1523   .bss.MotorR_Rev:00000000 MotorR_Rev
C:\Users\User\AppData\Local\Temp\ccHVLSih.s:1510   .bss.MotorL_Rev:00000000 MotorL_Rev
C:\Users\User\AppData\Local\Temp\ccHVLSih.s:1675   .data.ledval:00000000 ledval
C:\Users\User\AppData\Local\Temp\ccHVLSih.s:1649   .bss.timer1:00000000 timer1
C:\Users\User\AppData\Local\Temp\ccHVLSih.s:1447   .bss.Curve_Sens:00000000 $d
C:\Users\User\AppData\Local\Temp\ccHVLSih.s:1454   .bss.Curve_Sensor:00000000 $d
C:\Users\User\AppData\Local\Temp\ccHVLSih.s:1461   .bss.DGainCLB:00000000 $d
C:\Users\User\AppData\Local\Temp\ccHVLSih.s:1467   .bss.ErrFlg:00000000 $d
C:\Users\User\AppData\Local\Temp\ccHVLSih.s:1473   .bss.Flag:00000000 $d
C:\Users\User\AppData\Local\Temp\ccHVLSih.s:1480   .bss.FlagL:00000000 $d
C:\Users\User\AppData\Local\Temp\ccHVLSih.s:1487   .bss.FlagR:00000000 $d
C:\Users\User\AppData\Local\Temp\ccHVLSih.s:1494   .bss.IGainCLB:00000000 $d
C:\Users\User\AppData\Local\Temp\ccHVLSih.s:1500   .bss.MotorL:00000000 $d
C:\Users\User\AppData\Local\Temp\ccHVLSih.s:1507   .bss.MotorL_Rev:00000000 $d
C:\Users\User\AppData\Local\Temp\ccHVLSih.s:1513   .bss.MotorR:00000000 $d
C:\Users\User\AppData\Local\Temp\ccHVLSih.s:1520   .bss.MotorR_Rev:00000000 $d
C:\Users\User\AppData\Local\Temp\ccHVLSih.s:1526   .bss.PGainCLB:00000000 $d
C:\Users\User\AppData\Local\Temp\ccHVLSih.s:1532   .bss.SensL:00000000 $d
C:\Users\User\AppData\Local\Temp\ccHVLSih.s:1539   .bss.SensR:00000000 $d
C:\Users\User\AppData\Local\Temp\ccHVLSih.s:1546   .bss.SensValBuf:00000000 $d
C:\Users\User\AppData\Local\Temp\ccHVLSih.s:1553   .bss.SensVal_I:00000000 $d
C:\Users\User\AppData\Local\Temp\ccHVLSih.s:1560   .bss.SensVal_IBuf:00000000 $d
C:\Users\User\AppData\Local\Temp\ccHVLSih.s:1567   .bss.SensorL:00000000 $d
C:\Users\User\AppData\Local\Temp\ccHVLSih.s:1574   .bss.SensorR:00000000 $d
C:\Users\User\AppData\Local\Temp\ccHVLSih.s:1581   .bss.Side_SensL:00000000 $d
C:\Users\User\AppData\Local\Temp\ccHVLSih.s:1588   .bss.Side_SensR:00000000 $d
C:\Users\User\AppData\Local\Temp\ccHVLSih.s:1595   .bss.Side_SensorL:00000000 $d
C:\Users\User\AppData\Local\Temp\ccHVLSih.s:1602   .bss.Side_SensorR:00000000 $d
C:\Users\User\AppData\Local\Temp\ccHVLSih.s:1613   .bss.Stime:00000000 $d
C:\Users\User\AppData\Local\Temp\ccHVLSih.s:1615   .bss.analog1:00000000 $d
C:\Users\User\AppData\Local\Temp\ccHVLSih.s:1622   .bss.analog2:00000000 $d
C:\Users\User\AppData\Local\Temp\ccHVLSih.s:1629   .bss.buf:00000000 $d
C:\Users\User\AppData\Local\Temp\ccHVLSih.s:1639   .bss.stopFlg:00000000 $d
C:\Users\User\AppData\Local\Temp\ccHVLSih.s:1644   .bss.timeFlg:00000000 $d
C:\Users\User\AppData\Local\Temp\ccHVLSih.s:1646   .bss.timer1:00000000 $d
C:\Users\User\AppData\Local\Temp\ccHVLSih.s:1656   .bss.turnFlg:00000000 $d
C:\Users\User\AppData\Local\Temp\ccHVLSih.s:1658   .data.CommSpeed:00000000 $d
C:\Users\User\AppData\Local\Temp\ccHVLSih.s:1671   .data.ledval:00000000 $d

UNDEFINED SYMBOLS
__aeabi_i2d
__aeabi_dadd
__aeabi_dcmpge
__aeabi_dcmple
__aeabi_dmul
__aeabi_dsub
__aeabi_ddiv
__aeabi_d2iz
HAL_UART_Transmit
huart2
memset
HAL_RCC_OscConfig
HAL_RCC_ClockConfig
ARM GAS  C:\Users\User\AppData\Local\Temp\ccHVLSih.s 			page 44


HAL_RCCEx_PeriphCLKConfig
HAL_Init
MX_GPIO_Init
MX_DMA_Init
MX_USART2_UART_Init
MX_ADC1_Init
MX_ADC2_Init
MX_TIM1_Init
MX_TIM3_Init
MX_TIM2_Init
HAL_GPIO_WritePin
HAL_TIM_Base_Start_IT
HAL_TIM_PWM_Start
HAL_ADC_Start_DMA
HAL_GPIO_ReadPin
HAL_Delay
HAL_GPIO_TogglePin
htim2
htim3
htim1
hadc1
hadc2
