ARM GAS  C:\Users\User\AppData\Local\Temp\cc3QJOlW.s 			page 1


   1              		.cpu cortex-m4
   2              		.arch armv7e-m
   3              		.fpu fpv4-sp-d16
   4              		.eabi_attribute 27, 1
   5              		.eabi_attribute 28, 1
   6              		.eabi_attribute 20, 1
   7              		.eabi_attribute 21, 1
   8              		.eabi_attribute 23, 3
   9              		.eabi_attribute 24, 1
  10              		.eabi_attribute 25, 1
  11              		.eabi_attribute 26, 1
  12              		.eabi_attribute 30, 1
  13              		.eabi_attribute 34, 1
  14              		.eabi_attribute 18, 4
  15              		.file	"main.c"
  16              		.text
  17              	.Ltext0:
  18              		.cfi_sections	.debug_frame
  19              		.section	.text.SensUp,"ax",%progbits
  20              		.align	1
  21              		.global	SensUp
  22              		.syntax unified
  23              		.thumb
  24              		.thumb_func
  26              	SensUp:
  27              	.LFB126:
  28              		.file 1 "Core/Src/main.c"
   1:Core/Src/main.c **** /* USER CODE BEGIN Header */
   2:Core/Src/main.c **** /**
   3:Core/Src/main.c ****   ******************************************************************************
   4:Core/Src/main.c ****   * @file           : main.c
   5:Core/Src/main.c ****   * @brief          : Main program body
   6:Core/Src/main.c ****   ******************************************************************************
   7:Core/Src/main.c ****   * @attention
   8:Core/Src/main.c ****   *
   9:Core/Src/main.c ****   * Copyright (c) 2023 STMicroelectronics.
  10:Core/Src/main.c ****   * All rights reserved.
  11:Core/Src/main.c ****   *
  12:Core/Src/main.c ****   * This software is licensed under terms that can be found in the LICENSE file
  13:Core/Src/main.c ****   * in the root directory of this software component.
  14:Core/Src/main.c ****   * If no LICENSE file comes with this software, it is provided AS-IS.
  15:Core/Src/main.c ****   *
  16:Core/Src/main.c ****   ******************************************************************************
  17:Core/Src/main.c ****   */
  18:Core/Src/main.c **** /* USER CODE END Header */
  19:Core/Src/main.c **** /* Includes ------------------------------------------------------------------*/
  20:Core/Src/main.c **** #include "main.h"
  21:Core/Src/main.c **** #include "adc.h"
  22:Core/Src/main.c **** #include "dma.h"
  23:Core/Src/main.c **** #include "tim.h"
  24:Core/Src/main.c **** #include "usart.h"
  25:Core/Src/main.c **** #include "gpio.h"
  26:Core/Src/main.c **** 
  27:Core/Src/main.c **** /* Private includes ----------------------------------------------------------*/
  28:Core/Src/main.c **** /* USER CODE BEGIN Includes */
  29:Core/Src/main.c **** #include <stdio.h>
  30:Core/Src/main.c **** #ifdef __GNUC__
ARM GAS  C:\Users\User\AppData\Local\Temp\cc3QJOlW.s 			page 2


  31:Core/Src/main.c **** 	#define PUTCHAR_PROTOTYPE int __io_putchar(double analog2)
  32:Core/Src/main.c **** #else
  33:Core/Src/main.c **** 	#define PUTCHAR_PROTOTYPE int fputc(int analog2, FILE *f)
  34:Core/Src/main.c **** #endif /*__GNUC__*/
  35:Core/Src/main.c **** 
  36:Core/Src/main.c **** /* USER CODE END Includes */
  37:Core/Src/main.c **** 
  38:Core/Src/main.c **** /* Private typedef -----------------------------------------------------------*/
  39:Core/Src/main.c **** /* USER CODE BEGIN PTD */
  40:Core/Src/main.c **** 
  41:Core/Src/main.c **** /* USER CODE END PTD */
  42:Core/Src/main.c **** 
  43:Core/Src/main.c **** /* Private define ------------------------------------------------------------*/
  44:Core/Src/main.c **** /* USER CODE BEGIN PD */
  45:Core/Src/main.c **** /* USER CODE END PD */
  46:Core/Src/main.c **** 
  47:Core/Src/main.c **** /* Private macro -------------------------------------------------------------*/
  48:Core/Src/main.c **** /* USER CODE BEGIN PM */
  49:Core/Src/main.c **** 
  50:Core/Src/main.c **** /* USER CODE END PM */
  51:Core/Src/main.c **** 
  52:Core/Src/main.c **** /* Private variables ---------------------------------------------------------*/
  53:Core/Src/main.c **** 
  54:Core/Src/main.c **** /* USER CODE BEGIN PV */
  55:Core/Src/main.c **** 
  56:Core/Src/main.c **** /* USER CODE END PV */
  57:Core/Src/main.c **** 
  58:Core/Src/main.c **** /* Private function prototypes -----------------------------------------------*/
  59:Core/Src/main.c **** void SystemClock_Config(void);
  60:Core/Src/main.c **** /* USER CODE BEGIN PFP */
  61:Core/Src/main.c **** 
  62:Core/Src/main.c **** /* USER CODE END PFP */
  63:Core/Src/main.c **** 
  64:Core/Src/main.c **** /* Private user code ---------------------------------------------------------*/
  65:Core/Src/main.c **** /* USER CODE BEGIN 0 */
  66:Core/Src/main.c **** 
  67:Core/Src/main.c **** void    init(void);        
  68:Core/Src/main.c **** void    led_out(void);      
  69:Core/Src/main.c **** void    MotorCtrl(void);    
  70:Core/Src/main.c **** void    LineTrace(void);    
  71:Core/Src/main.c **** void    SensUp(void);       
  72:Core/Src/main.c **** void    Side_SensUp(void);       
  73:Core/Src/main.c **** int     GetVol(void);       
  74:Core/Src/main.c **** void    Stop(void);
  75:Core/Src/main.c **** 
  76:Core/Src/main.c **** int timer1=0;
  77:Core/Src/main.c **** int ledval=1;
  78:Core/Src/main.c **** int MotorL_Rev=0,MotorR_Rev=0;
  79:Core/Src/main.c **** int MotorL=0,MotorR=0;
  80:Core/Src/main.c **** int ErrFlg=0;
  81:Core/Src/main.c **** int SensValBuf=0;
  82:Core/Src/main.c **** int SensorR,SensorL;
  83:Core/Src/main.c **** int Side_SensorR,Side_SensorL;
  84:Core/Src/main.c **** int Curve_Sensor;
  85:Core/Src/main.c **** int SensR[9],SensL[9];
  86:Core/Src/main.c **** int Side_SensR[9],Side_SensL[9],Curve_Sens[9];
  87:Core/Src/main.c **** int Flag=0,FlagL=0,FlagR=0;
ARM GAS  C:\Users\User\AppData\Local\Temp\cc3QJOlW.s 			page 3


  88:Core/Src/main.c **** double PGainCLB=0;
  89:Core/Src/main.c **** double IGainCLB=0;
  90:Core/Src/main.c **** double DGainCLB=0;
  91:Core/Src/main.c **** double SensVal_I,SensVal_IBuf=0;
  92:Core/Src/main.c **** char turnFlg=0;
  93:Core/Src/main.c **** char timeFlg=0;
  94:Core/Src/main.c **** char stopFlg=0;
  95:Core/Src/main.c **** char Stime=0;
  96:Core/Src/main.c **** int CommSpeed=9500;
  97:Core/Src/main.c **** char buf[1];
  98:Core/Src/main.c **** uint16_t analog1[2];
  99:Core/Src/main.c **** uint16_t analog2[3];
 100:Core/Src/main.c **** uint8_t button_state = 1;
 101:Core/Src/main.c **** 
 102:Core/Src/main.c **** /*void HAL_UART_RxCpltCallback(UART_HandleTypeDef *huart){
 103:Core/Src/main.c **** 	HAL_UART_Transmit_IT(&huart2, (uint16_t *)analog2, sizeof(analog2)/sizeof(analog2[0]));
 104:Core/Src/main.c **** 	HAL_UART_Receive_IT(&huart2, (uint16_t *)analog2, sizeof(analog2)/sizeof(analog2[0]));
 105:Core/Src/main.c ****  }*/
 106:Core/Src/main.c **** 
 107:Core/Src/main.c **** void SensUp(void){
  29              		.loc 1 107 18 view -0
  30              		.cfi_startproc
  31              		@ args = 0, pretend = 0, frame = 0
  32              		@ frame_needed = 0, uses_anonymous_args = 0
  33              		@ link register save eliminated.
  34 0000 10B4     		push	{r4}
  35              	.LCFI0:
  36              		.cfi_def_cfa_offset 4
  37              		.cfi_offset 4, -4
 108:Core/Src/main.c **** int i,j,SensBuf;
  38              		.loc 1 108 1 view .LVU1
 109:Core/Src/main.c ****   for (i = 0; i < 9; i++) {
  39              		.loc 1 109 3 view .LVU2
  40              	.LVL0:
  41              		.loc 1 109 10 is_stmt 0 view .LVU3
  42 0002 4FF0000C 		mov	ip, #0
  43              		.loc 1 109 3 view .LVU4
  44 0006 1EE0     		b	.L2
  45              	.LVL1:
  46              	.L4:
 107:Core/Src/main.c **** int i,j,SensBuf;
  47              		.loc 1 107 18 discriminator 1 view .LVU5
  48 0008 1346     		mov	r3, r2
  49              	.LVL2:
  50              	.L6:
 110:Core/Src/main.c ****     for (j = 9; j > i; j--) {  
  51              		.loc 1 110 17 is_stmt 1 discriminator 1 view .LVU6
  52              		.loc 1 110 5 is_stmt 0 discriminator 1 view .LVU7
  53 000a 9C45     		cmp	ip, r3
  54 000c 19DA     		bge	.L9
 111:Core/Src/main.c ****       if (SensR[j-1] > SensR[j]) {
  55              		.loc 1 111 7 is_stmt 1 view .LVU8
  56              		.loc 1 111 18 is_stmt 0 view .LVU9
  57 000e 5A1E     		subs	r2, r3, #1
  58              		.loc 1 111 16 view .LVU10
  59 0010 1549     		ldr	r1, .L11
  60 0012 51F82200 		ldr	r0, [r1, r2, lsl #2]
ARM GAS  C:\Users\User\AppData\Local\Temp\cc3QJOlW.s 			page 4


  61              		.loc 1 111 29 view .LVU11
  62 0016 51F82310 		ldr	r1, [r1, r3, lsl #2]
  63              		.loc 1 111 10 view .LVU12
  64 001a 8842     		cmp	r0, r1
  65 001c 04DD     		ble	.L3
 112:Core/Src/main.c ****         SensBuf = SensR[j-1];
  66              		.loc 1 112 9 is_stmt 1 view .LVU13
  67              	.LVL3:
 113:Core/Src/main.c ****         SensR[j-1] = SensR[j];
  68              		.loc 1 113 9 view .LVU14
  69              		.loc 1 113 20 is_stmt 0 view .LVU15
  70 001e 124C     		ldr	r4, .L11
  71 0020 44F82210 		str	r1, [r4, r2, lsl #2]
 114:Core/Src/main.c ****         SensR[j] = SensBuf;
  72              		.loc 1 114 9 is_stmt 1 view .LVU16
  73              		.loc 1 114 18 is_stmt 0 view .LVU17
  74 0024 44F82300 		str	r0, [r4, r3, lsl #2]
  75              	.LVL4:
  76              	.L3:
 115:Core/Src/main.c ****       }
 116:Core/Src/main.c ****       if (SensL[j-1] > SensL[j]) {
  77              		.loc 1 116 7 is_stmt 1 view .LVU18
  78              		.loc 1 116 16 is_stmt 0 view .LVU19
  79 0028 1049     		ldr	r1, .L11+4
  80 002a 51F82200 		ldr	r0, [r1, r2, lsl #2]
  81              		.loc 1 116 29 view .LVU20
  82 002e 51F82310 		ldr	r1, [r1, r3, lsl #2]
  83              		.loc 1 116 10 view .LVU21
  84 0032 8842     		cmp	r0, r1
  85 0034 E8DD     		ble	.L4
 117:Core/Src/main.c ****         SensBuf = SensL[j-1];
  86              		.loc 1 117 9 is_stmt 1 view .LVU22
  87              	.LVL5:
 118:Core/Src/main.c ****         SensL[j-1] = SensL[j];
  88              		.loc 1 118 9 view .LVU23
  89              		.loc 1 118 20 is_stmt 0 view .LVU24
  90 0036 0D4C     		ldr	r4, .L11+4
  91 0038 44F82210 		str	r1, [r4, r2, lsl #2]
 119:Core/Src/main.c ****         SensL[j] = SensBuf;
  92              		.loc 1 119 9 is_stmt 1 view .LVU25
  93              		.loc 1 119 18 is_stmt 0 view .LVU26
  94 003c 44F82300 		str	r0, [r4, r3, lsl #2]
  95 0040 E2E7     		b	.L4
  96              	.LVL6:
  97              	.L9:
 109:Core/Src/main.c ****     for (j = 9; j > i; j--) {  
  98              		.loc 1 109 22 is_stmt 1 discriminator 2 view .LVU27
 109:Core/Src/main.c ****     for (j = 9; j > i; j--) {  
  99              		.loc 1 109 23 is_stmt 0 discriminator 2 view .LVU28
 100 0042 0CF1010C 		add	ip, ip, #1
 101              	.LVL7:
 102              	.L2:
 109:Core/Src/main.c ****     for (j = 9; j > i; j--) {  
 103              		.loc 1 109 15 is_stmt 1 discriminator 1 view .LVU29
 109:Core/Src/main.c ****     for (j = 9; j > i; j--) {  
 104              		.loc 1 109 3 is_stmt 0 discriminator 1 view .LVU30
 105 0046 BCF1080F 		cmp	ip, #8
ARM GAS  C:\Users\User\AppData\Local\Temp\cc3QJOlW.s 			page 5


 106 004a 01DC     		bgt	.L10
 110:Core/Src/main.c ****       if (SensR[j-1] > SensR[j]) {
 107              		.loc 1 110 12 view .LVU31
 108 004c 0923     		movs	r3, #9
 109 004e DCE7     		b	.L6
 110              	.L10:
 120:Core/Src/main.c ****       }
 121:Core/Src/main.c ****     }
 122:Core/Src/main.c ****   }
 123:Core/Src/main.c **** 
 124:Core/Src/main.c ****     SensorR = SensR[5];
 111              		.loc 1 124 5 is_stmt 1 view .LVU32
 112              		.loc 1 124 20 is_stmt 0 view .LVU33
 113 0050 054B     		ldr	r3, .L11
 114 0052 5A69     		ldr	r2, [r3, #20]
 115              		.loc 1 124 13 view .LVU34
 116 0054 064B     		ldr	r3, .L11+8
 117 0056 1A60     		str	r2, [r3]
 125:Core/Src/main.c ****     SensorL = SensL[5];
 118              		.loc 1 125 5 is_stmt 1 view .LVU35
 119              		.loc 1 125 20 is_stmt 0 view .LVU36
 120 0058 044B     		ldr	r3, .L11+4
 121 005a 5A69     		ldr	r2, [r3, #20]
 122              		.loc 1 125 13 view .LVU37
 123 005c 054B     		ldr	r3, .L11+12
 124 005e 1A60     		str	r2, [r3]
 126:Core/Src/main.c ****     }
 125              		.loc 1 126 5 view .LVU38
 126 0060 5DF8044B 		ldr	r4, [sp], #4
 127              	.LCFI1:
 128              		.cfi_restore 4
 129              		.cfi_def_cfa_offset 0
 130 0064 7047     		bx	lr
 131              	.L12:
 132 0066 00BF     		.align	2
 133              	.L11:
 134 0068 00000000 		.word	.LANCHOR0
 135 006c 00000000 		.word	.LANCHOR1
 136 0070 00000000 		.word	.LANCHOR2
 137 0074 00000000 		.word	.LANCHOR3
 138              		.cfi_endproc
 139              	.LFE126:
 141              		.section	.text.Side_SensUp,"ax",%progbits
 142              		.align	1
 143              		.global	Side_SensUp
 144              		.syntax unified
 145              		.thumb
 146              		.thumb_func
 148              	Side_SensUp:
 149              	.LFB127:
 127:Core/Src/main.c **** 
 128:Core/Src/main.c **** void Side_SensUp(void){
 150              		.loc 1 128 23 is_stmt 1 view -0
 151              		.cfi_startproc
 152              		@ args = 0, pretend = 0, frame = 0
 153              		@ frame_needed = 0, uses_anonymous_args = 0
 154              		@ link register save eliminated.
ARM GAS  C:\Users\User\AppData\Local\Temp\cc3QJOlW.s 			page 6


 155 0000 10B4     		push	{r4}
 156              	.LCFI2:
 157              		.cfi_def_cfa_offset 4
 158              		.cfi_offset 4, -4
 129:Core/Src/main.c **** int i,j,Side_SensBuf;
 159              		.loc 1 129 1 view .LVU40
 130:Core/Src/main.c ****   for (i = 0; i < 9; i++) {
 160              		.loc 1 130 3 view .LVU41
 161              	.LVL8:
 162              		.loc 1 130 10 is_stmt 0 view .LVU42
 163 0002 4FF0000C 		mov	ip, #0
 164              		.loc 1 130 3 view .LVU43
 165 0006 2AE0     		b	.L14
 166              	.LVL9:
 167              	.L17:
 128:Core/Src/main.c **** int i,j,Side_SensBuf;
 168              		.loc 1 128 23 discriminator 1 view .LVU44
 169 0008 1346     		mov	r3, r2
 170              	.LVL10:
 171              	.L19:
 131:Core/Src/main.c ****     for (j = 9; j > i; j--) {
 172              		.loc 1 131 17 is_stmt 1 discriminator 1 view .LVU45
 173              		.loc 1 131 5 is_stmt 0 discriminator 1 view .LVU46
 174 000a 9C45     		cmp	ip, r3
 175 000c 25DA     		bge	.L22
 132:Core/Src/main.c ****       if (Side_SensR[j-1] > Side_SensR[j]) {
 176              		.loc 1 132 7 is_stmt 1 view .LVU47
 177              		.loc 1 132 23 is_stmt 0 view .LVU48
 178 000e 5A1E     		subs	r2, r3, #1
 179              		.loc 1 132 21 view .LVU49
 180 0010 1D49     		ldr	r1, .L24
 181 0012 51F82200 		ldr	r0, [r1, r2, lsl #2]
 182              		.loc 1 132 39 view .LVU50
 183 0016 51F82310 		ldr	r1, [r1, r3, lsl #2]
 184              		.loc 1 132 10 view .LVU51
 185 001a 8842     		cmp	r0, r1
 186 001c 04DD     		ble	.L15
 133:Core/Src/main.c ****         Side_SensBuf = Side_SensR[j-1];
 187              		.loc 1 133 9 is_stmt 1 view .LVU52
 188              	.LVL11:
 134:Core/Src/main.c ****         Side_SensR[j-1] = Side_SensR[j];
 189              		.loc 1 134 9 view .LVU53
 190              		.loc 1 134 25 is_stmt 0 view .LVU54
 191 001e 1A4C     		ldr	r4, .L24
 192 0020 44F82210 		str	r1, [r4, r2, lsl #2]
 135:Core/Src/main.c ****         Side_SensR[j] = Side_SensBuf;    
 193              		.loc 1 135 9 is_stmt 1 view .LVU55
 194              		.loc 1 135 23 is_stmt 0 view .LVU56
 195 0024 44F82300 		str	r0, [r4, r3, lsl #2]
 196              	.LVL12:
 197              	.L15:
 136:Core/Src/main.c ****       }
 137:Core/Src/main.c ****       if (Side_SensL[j-1] > Side_SensL[j]) {
 198              		.loc 1 137 7 is_stmt 1 view .LVU57
 199              		.loc 1 137 21 is_stmt 0 view .LVU58
 200 0028 1849     		ldr	r1, .L24+4
 201 002a 51F82200 		ldr	r0, [r1, r2, lsl #2]
ARM GAS  C:\Users\User\AppData\Local\Temp\cc3QJOlW.s 			page 7


 202              		.loc 1 137 39 view .LVU59
 203 002e 51F82310 		ldr	r1, [r1, r3, lsl #2]
 204              		.loc 1 137 10 view .LVU60
 205 0032 8842     		cmp	r0, r1
 206 0034 04DD     		ble	.L16
 138:Core/Src/main.c ****         Side_SensBuf = Side_SensL[j-1];
 207              		.loc 1 138 9 is_stmt 1 view .LVU61
 208              	.LVL13:
 139:Core/Src/main.c ****         Side_SensL[j-1] = Side_SensL[j];
 209              		.loc 1 139 9 view .LVU62
 210              		.loc 1 139 25 is_stmt 0 view .LVU63
 211 0036 154C     		ldr	r4, .L24+4
 212 0038 44F82210 		str	r1, [r4, r2, lsl #2]
 140:Core/Src/main.c ****         Side_SensL[j] = Side_SensBuf;
 213              		.loc 1 140 9 is_stmt 1 view .LVU64
 214              		.loc 1 140 23 is_stmt 0 view .LVU65
 215 003c 44F82300 		str	r0, [r4, r3, lsl #2]
 216              	.LVL14:
 217              	.L16:
 141:Core/Src/main.c ****       }
 142:Core/Src/main.c ****       if (Curve_Sens[j-1] > Curve_Sens[j]) {
 218              		.loc 1 142 7 is_stmt 1 view .LVU66
 219              		.loc 1 142 21 is_stmt 0 view .LVU67
 220 0040 1349     		ldr	r1, .L24+8
 221 0042 51F82200 		ldr	r0, [r1, r2, lsl #2]
 222              		.loc 1 142 39 view .LVU68
 223 0046 51F82310 		ldr	r1, [r1, r3, lsl #2]
 224              		.loc 1 142 10 view .LVU69
 225 004a 8842     		cmp	r0, r1
 226 004c DCDD     		ble	.L17
 143:Core/Src/main.c ****         Side_SensBuf = Curve_Sens[j-1];
 227              		.loc 1 143 9 is_stmt 1 view .LVU70
 228              	.LVL15:
 144:Core/Src/main.c ****         Curve_Sens[j-1] = Curve_Sens[j];
 229              		.loc 1 144 9 view .LVU71
 230              		.loc 1 144 25 is_stmt 0 view .LVU72
 231 004e 104C     		ldr	r4, .L24+8
 232 0050 44F82210 		str	r1, [r4, r2, lsl #2]
 145:Core/Src/main.c ****         Curve_Sens[j] = Side_SensBuf;
 233              		.loc 1 145 9 is_stmt 1 view .LVU73
 234              		.loc 1 145 23 is_stmt 0 view .LVU74
 235 0054 44F82300 		str	r0, [r4, r3, lsl #2]
 236 0058 D6E7     		b	.L17
 237              	.LVL16:
 238              	.L22:
 130:Core/Src/main.c ****     for (j = 9; j > i; j--) {
 239              		.loc 1 130 22 is_stmt 1 discriminator 2 view .LVU75
 130:Core/Src/main.c ****     for (j = 9; j > i; j--) {
 240              		.loc 1 130 23 is_stmt 0 discriminator 2 view .LVU76
 241 005a 0CF1010C 		add	ip, ip, #1
 242              	.LVL17:
 243              	.L14:
 130:Core/Src/main.c ****     for (j = 9; j > i; j--) {
 244              		.loc 1 130 15 is_stmt 1 discriminator 1 view .LVU77
 130:Core/Src/main.c ****     for (j = 9; j > i; j--) {
 245              		.loc 1 130 3 is_stmt 0 discriminator 1 view .LVU78
 246 005e BCF1080F 		cmp	ip, #8
ARM GAS  C:\Users\User\AppData\Local\Temp\cc3QJOlW.s 			page 8


 247 0062 01DC     		bgt	.L23
 131:Core/Src/main.c ****       if (Side_SensR[j-1] > Side_SensR[j]) {
 248              		.loc 1 131 12 view .LVU79
 249 0064 0923     		movs	r3, #9
 250 0066 D0E7     		b	.L19
 251              	.L23:
 146:Core/Src/main.c ****       }
 147:Core/Src/main.c ****     }
 148:Core/Src/main.c ****   }
 149:Core/Src/main.c ****     Side_SensorR = Side_SensR[5];
 252              		.loc 1 149 5 is_stmt 1 view .LVU80
 253              		.loc 1 149 30 is_stmt 0 view .LVU81
 254 0068 074B     		ldr	r3, .L24
 255 006a 5A69     		ldr	r2, [r3, #20]
 256              		.loc 1 149 18 view .LVU82
 257 006c 094B     		ldr	r3, .L24+12
 258 006e 1A60     		str	r2, [r3]
 150:Core/Src/main.c ****     Side_SensorL = Side_SensL[5];
 259              		.loc 1 150 5 is_stmt 1 view .LVU83
 260              		.loc 1 150 30 is_stmt 0 view .LVU84
 261 0070 064B     		ldr	r3, .L24+4
 262 0072 5A69     		ldr	r2, [r3, #20]
 263              		.loc 1 150 18 view .LVU85
 264 0074 084B     		ldr	r3, .L24+16
 265 0076 1A60     		str	r2, [r3]
 151:Core/Src/main.c ****     Curve_Sensor = Curve_Sens[5];
 266              		.loc 1 151 5 is_stmt 1 view .LVU86
 267              		.loc 1 151 30 is_stmt 0 view .LVU87
 268 0078 054B     		ldr	r3, .L24+8
 269 007a 5A69     		ldr	r2, [r3, #20]
 270              		.loc 1 151 18 view .LVU88
 271 007c 074B     		ldr	r3, .L24+20
 272 007e 1A60     		str	r2, [r3]
 152:Core/Src/main.c ****     }
 273              		.loc 1 152 5 view .LVU89
 274 0080 5DF8044B 		ldr	r4, [sp], #4
 275              	.LCFI3:
 276              		.cfi_restore 4
 277              		.cfi_def_cfa_offset 0
 278 0084 7047     		bx	lr
 279              	.L25:
 280 0086 00BF     		.align	2
 281              	.L24:
 282 0088 00000000 		.word	.LANCHOR4
 283 008c 00000000 		.word	.LANCHOR5
 284 0090 00000000 		.word	.LANCHOR6
 285 0094 00000000 		.word	.LANCHOR7
 286 0098 00000000 		.word	.LANCHOR8
 287 009c 00000000 		.word	.LANCHOR9
 288              		.cfi_endproc
 289              	.LFE127:
 291              		.section	.text.sensGet,"ax",%progbits
 292              		.align	1
 293              		.global	sensGet
 294              		.syntax unified
 295              		.thumb
 296              		.thumb_func
ARM GAS  C:\Users\User\AppData\Local\Temp\cc3QJOlW.s 			page 9


 298              	sensGet:
 299              	.LFB128:
 153:Core/Src/main.c **** 
 154:Core/Src/main.c **** void sensGet(){
 300              		.loc 1 154 15 is_stmt 1 view -0
 301              		.cfi_startproc
 302              		@ args = 0, pretend = 0, frame = 0
 303              		@ frame_needed = 0, uses_anonymous_args = 0
 304              		@ link register save eliminated.
 305 0000 10B4     		push	{r4}
 306              	.LCFI4:
 307              		.cfi_def_cfa_offset 4
 308              		.cfi_offset 4, -4
 155:Core/Src/main.c ****     if(Stime >= 9) {
 309              		.loc 1 155 5 view .LVU91
 310              		.loc 1 155 14 is_stmt 0 view .LVU92
 311 0002 124B     		ldr	r3, .L29
 312 0004 1B78     		ldrb	r3, [r3]	@ zero_extendqisi2
 313              		.loc 1 155 7 view .LVU93
 314 0006 082B     		cmp	r3, #8
 315 0008 02D9     		bls	.L27
 156:Core/Src/main.c ****         Stime=0;
 316              		.loc 1 156 9 is_stmt 1 view .LVU94
 317              		.loc 1 156 14 is_stmt 0 view .LVU95
 318 000a 104B     		ldr	r3, .L29
 319 000c 0022     		movs	r2, #0
 320 000e 1A70     		strb	r2, [r3]
 321              	.L27:
 157:Core/Src/main.c ****         } 
 158:Core/Src/main.c ****     SensR[Stime] = analog1[1];
 322              		.loc 1 158 5 is_stmt 1 view .LVU96
 323              		.loc 1 158 10 is_stmt 0 view .LVU97
 324 0010 0E49     		ldr	r1, .L29
 325 0012 0B78     		ldrb	r3, [r1]	@ zero_extendqisi2
 326              		.loc 1 158 27 view .LVU98
 327 0014 0E4A     		ldr	r2, .L29+4
 328 0016 5488     		ldrh	r4, [r2, #2]
 329              		.loc 1 158 18 view .LVU99
 330 0018 0E48     		ldr	r0, .L29+8
 331 001a 40F82340 		str	r4, [r0, r3, lsl #2]
 159:Core/Src/main.c ****     SensL[Stime] = analog1[0];
 332              		.loc 1 159 5 is_stmt 1 view .LVU100
 333              		.loc 1 159 27 is_stmt 0 view .LVU101
 334 001e 1088     		ldrh	r0, [r2]
 335              		.loc 1 159 18 view .LVU102
 336 0020 0D4A     		ldr	r2, .L29+12
 337 0022 42F82300 		str	r0, [r2, r3, lsl #2]
 160:Core/Src/main.c ****     Side_SensL[Stime] = analog2[1];
 338              		.loc 1 160 5 is_stmt 1 view .LVU103
 339              		.loc 1 160 32 is_stmt 0 view .LVU104
 340 0026 0D4A     		ldr	r2, .L29+16
 341 0028 5488     		ldrh	r4, [r2, #2]
 342              		.loc 1 160 23 view .LVU105
 343 002a 0D48     		ldr	r0, .L29+20
 344 002c 40F82340 		str	r4, [r0, r3, lsl #2]
 161:Core/Src/main.c ****     Side_SensR[Stime] = analog2[2];
 345              		.loc 1 161 5 is_stmt 1 view .LVU106
ARM GAS  C:\Users\User\AppData\Local\Temp\cc3QJOlW.s 			page 10


 346              		.loc 1 161 32 is_stmt 0 view .LVU107
 347 0030 9488     		ldrh	r4, [r2, #4]
 348              		.loc 1 161 23 view .LVU108
 349 0032 0C48     		ldr	r0, .L29+24
 350 0034 40F82340 		str	r4, [r0, r3, lsl #2]
 162:Core/Src/main.c ****     Curve_Sens[Stime] = analog2[0];
 351              		.loc 1 162 5 is_stmt 1 view .LVU109
 352              		.loc 1 162 32 is_stmt 0 view .LVU110
 353 0038 1088     		ldrh	r0, [r2]
 354              		.loc 1 162 23 view .LVU111
 355 003a 0B4A     		ldr	r2, .L29+28
 356 003c 42F82300 		str	r0, [r2, r3, lsl #2]
 163:Core/Src/main.c ****     Stime++;
 357              		.loc 1 163 5 is_stmt 1 view .LVU112
 358              		.loc 1 163 10 is_stmt 0 view .LVU113
 359 0040 0133     		adds	r3, r3, #1
 360 0042 0B70     		strb	r3, [r1]
 164:Core/Src/main.c ****     }  
 361              		.loc 1 164 5 view .LVU114
 362 0044 5DF8044B 		ldr	r4, [sp], #4
 363              	.LCFI5:
 364              		.cfi_restore 4
 365              		.cfi_def_cfa_offset 0
 366 0048 7047     		bx	lr
 367              	.L30:
 368 004a 00BF     		.align	2
 369              	.L29:
 370 004c 00000000 		.word	.LANCHOR10
 371 0050 00000000 		.word	.LANCHOR11
 372 0054 00000000 		.word	.LANCHOR0
 373 0058 00000000 		.word	.LANCHOR1
 374 005c 00000000 		.word	.LANCHOR12
 375 0060 00000000 		.word	.LANCHOR5
 376 0064 00000000 		.word	.LANCHOR4
 377 0068 00000000 		.word	.LANCHOR6
 378              		.cfi_endproc
 379              	.LFE128:
 381              		.global	__aeabi_i2d
 382              		.global	__aeabi_dadd
 383              		.global	__aeabi_dcmpge
 384              		.global	__aeabi_dcmple
 385              		.global	__aeabi_dmul
 386              		.global	__aeabi_dsub
 387              		.global	__aeabi_ddiv
 388              		.global	__aeabi_d2iz
 389              		.section	.text.LineTrace,"ax",%progbits
 390              		.align	1
 391              		.global	LineTrace
 392              		.syntax unified
 393              		.thumb
 394              		.thumb_func
 396              	LineTrace:
 397              	.LFB129:
 165:Core/Src/main.c **** void LineTrace(void){
 398              		.loc 1 165 21 is_stmt 1 view -0
 399              		.cfi_startproc
 400              		@ args = 0, pretend = 0, frame = 0
ARM GAS  C:\Users\User\AppData\Local\Temp\cc3QJOlW.s 			page 11


 401              		@ frame_needed = 0, uses_anonymous_args = 0
 402 0000 2DE9F84F 		push	{r3, r4, r5, r6, r7, r8, r9, r10, fp, lr}
 403              	.LCFI6:
 404              		.cfi_def_cfa_offset 40
 405              		.cfi_offset 3, -40
 406              		.cfi_offset 4, -36
 407              		.cfi_offset 5, -32
 408              		.cfi_offset 6, -28
 409              		.cfi_offset 7, -24
 410              		.cfi_offset 8, -20
 411              		.cfi_offset 9, -16
 412              		.cfi_offset 10, -12
 413              		.cfi_offset 11, -8
 414              		.cfi_offset 14, -4
 166:Core/Src/main.c ****   int SensVal,SensVal_D;
 415              		.loc 1 166 3 view .LVU116
 167:Core/Src/main.c ****   double PGain=65.0,IGain=0.000001,DGain=0.0;
 416              		.loc 1 167 3 view .LVU117
 417              	.LVL18:
 168:Core/Src/main.c ****   SensVal = SensorR - SensorL;
 418              		.loc 1 168 3 view .LVU118
 419              		.loc 1 168 21 is_stmt 0 view .LVU119
 420 0004 7E4B     		ldr	r3, .L49+32
 421 0006 1C68     		ldr	r4, [r3]
 422 0008 7E4B     		ldr	r3, .L49+36
 423 000a 1B68     		ldr	r3, [r3]
 424              		.loc 1 168 11 view .LVU120
 425 000c E41A     		subs	r4, r4, r3
 426              	.LVL19:
 169:Core/Src/main.c ****   if(Curve_Sensor<2550){
 427              		.loc 1 169 3 is_stmt 1 view .LVU121
 428              		.loc 1 169 18 is_stmt 0 view .LVU122
 429 000e 7E4B     		ldr	r3, .L49+40
 430 0010 1A68     		ldr	r2, [r3]
 431              		.loc 1 169 5 view .LVU123
 432 0012 40F6F513 		movw	r3, #2549
 433 0016 9A42     		cmp	r2, r3
 434 0018 00F3BA80 		bgt	.L32
 170:Core/Src/main.c ****     CommSpeed=10500;
 435              		.loc 1 170 5 is_stmt 1 view .LVU124
 436              		.loc 1 170 14 is_stmt 0 view .LVU125
 437 001c 7B4B     		ldr	r3, .L49+44
 438 001e 42F60412 		movw	r2, #10500
 439 0022 1A60     		str	r2, [r3]
 171:Core/Src/main.c ****     HAL_GPIO_TogglePin(LED_2_GPIO_Port,LED_2_Pin);
 440              		.loc 1 171 5 is_stmt 1 view .LVU126
 441 0024 7A4D     		ldr	r5, .L49+48
 442 0026 2021     		movs	r1, #32
 443 0028 2846     		mov	r0, r5
 444 002a FFF7FEFF 		bl	HAL_GPIO_TogglePin
 445              	.LVL20:
 172:Core/Src/main.c ****     HAL_GPIO_WritePin(LED_4_GPIO_Port,LED_4_Pin,0);
 446              		.loc 1 172 5 view .LVU127
 447 002e 0022     		movs	r2, #0
 448 0030 8021     		movs	r1, #128
 449 0032 2846     		mov	r0, r5
 450 0034 FFF7FEFF 		bl	HAL_GPIO_WritePin
ARM GAS  C:\Users\User\AppData\Local\Temp\cc3QJOlW.s 			page 12


 451              	.LVL21:
 452              	.L33:
 173:Core/Src/main.c ****   }else{
 174:Core/Src/main.c ****     CommSpeed=9000;
 175:Core/Src/main.c ****     HAL_GPIO_TogglePin(LED_4_GPIO_Port,LED_4_Pin);
 176:Core/Src/main.c ****     HAL_GPIO_WritePin(LED_2_GPIO_Port,LED_2_Pin,0);
 177:Core/Src/main.c ****   }
 178:Core/Src/main.c ****   if(stopFlg>=2)CommSpeed=0;
 453              		.loc 1 178 3 view .LVU128
 454              		.loc 1 178 13 is_stmt 0 view .LVU129
 455 0038 764B     		ldr	r3, .L49+52
 456 003a 1B78     		ldrb	r3, [r3]	@ zero_extendqisi2
 457              		.loc 1 178 5 view .LVU130
 458 003c 012B     		cmp	r3, #1
 459 003e 02D9     		bls	.L34
 460              		.loc 1 178 17 is_stmt 1 discriminator 1 view .LVU131
 461              		.loc 1 178 26 is_stmt 0 discriminator 1 view .LVU132
 462 0040 724B     		ldr	r3, .L49+44
 463 0042 0022     		movs	r2, #0
 464 0044 1A60     		str	r2, [r3]
 465              	.L34:
 179:Core/Src/main.c ****   if(SensVal <= 0 && !turnFlg){       
 466              		.loc 1 179 3 is_stmt 1 view .LVU133
 467              		.loc 1 179 5 is_stmt 0 view .LVU134
 468 0046 002C     		cmp	r4, #0
 469 0048 40F3B180 		ble	.L46
 470              	.L35:
 180:Core/Src/main.c ****     turnFlg=1;
 181:Core/Src/main.c ****     SensVal_I = 0;
 182:Core/Src/main.c ****   }else if (SensVal >= 0 && turnFlg){//turnR
 471              		.loc 1 182 9 is_stmt 1 view .LVU135
 472              		.loc 1 182 12 is_stmt 0 view .LVU136
 473 004c 002C     		cmp	r4, #0
 474 004e 0ADB     		blt	.L36
 475              		.loc 1 182 26 discriminator 1 view .LVU137
 476 0050 714B     		ldr	r3, .L49+56
 477 0052 1B78     		ldrb	r3, [r3]	@ zero_extendqisi2
 478 0054 3BB1     		cbz	r3, .L36
 183:Core/Src/main.c ****     turnFlg=0;
 479              		.loc 1 183 5 is_stmt 1 view .LVU138
 480              		.loc 1 183 12 is_stmt 0 view .LVU139
 481 0056 704B     		ldr	r3, .L49+56
 482 0058 0022     		movs	r2, #0
 483 005a 1A70     		strb	r2, [r3]
 184:Core/Src/main.c ****     SensVal_I = 0;
 484              		.loc 1 184 5 is_stmt 1 view .LVU140
 485              		.loc 1 184 15 is_stmt 0 view .LVU141
 486 005c 6F4B     		ldr	r3, .L49+60
 487 005e 0020     		movs	r0, #0
 488 0060 0021     		movs	r1, #0
 489 0062 C3E90001 		strd	r0, [r3]
 490              	.L36:
 185:Core/Src/main.c ****   }
 186:Core/Src/main.c ****   SensVal_I = SensVal_I + SensVal;     
 491              		.loc 1 186 3 is_stmt 1 view .LVU142
 492              		.loc 1 186 25 is_stmt 0 view .LVU143
 493 0066 2046     		mov	r0, r4
ARM GAS  C:\Users\User\AppData\Local\Temp\cc3QJOlW.s 			page 13


 494 0068 FFF7FEFF 		bl	__aeabi_i2d
 495              	.LVL22:
 496 006c 0646     		mov	r6, r0
 497 006e 0F46     		mov	r7, r1
 498 0070 6A4D     		ldr	r5, .L49+60
 499 0072 D5E90023 		ldrd	r2, [r5]
 500 0076 FFF7FEFF 		bl	__aeabi_dadd
 501              	.LVL23:
 502 007a 8046     		mov	r8, r0
 503 007c 8946     		mov	r9, r1
 504              		.loc 1 186 13 view .LVU144
 505 007e C5E90089 		strd	r8, [r5]
 187:Core/Src/main.c ****   SensVal_IBuf = SensVal_IBuf + SensVal;
 506              		.loc 1 187 3 is_stmt 1 view .LVU145
 507              		.loc 1 187 31 is_stmt 0 view .LVU146
 508 0082 674D     		ldr	r5, .L49+64
 509 0084 D5E90023 		ldrd	r2, [r5]
 510 0088 3046     		mov	r0, r6
 511 008a 3946     		mov	r1, r7
 512 008c FFF7FEFF 		bl	__aeabi_dadd
 513              	.LVL24:
 514 0090 8246     		mov	r10, r0
 515 0092 8B46     		mov	fp, r1
 516              		.loc 1 187 16 view .LVU147
 517 0094 C5E900AB 		strd	r10, [r5]
 188:Core/Src/main.c ****   if(SensVal_I >= 100000000) SensVal_I = 100000000;
 518              		.loc 1 188 3 is_stmt 1 view .LVU148
 519              		.loc 1 188 5 is_stmt 0 view .LVU149
 520 0098 51A3     		adr	r3, .L49
 521 009a D3E90023 		ldrd	r2, [r3]
 522 009e 4046     		mov	r0, r8
 523 00a0 4946     		mov	r1, r9
 524 00a2 FFF7FEFF 		bl	__aeabi_dcmpge
 525              	.LVL25:
 526 00a6 28B1     		cbz	r0, .L37
 527              		.loc 1 188 30 is_stmt 1 discriminator 1 view .LVU150
 528              		.loc 1 188 40 is_stmt 0 discriminator 1 view .LVU151
 529 00a8 5C4B     		ldr	r3, .L49+60
 530 00aa 4DA1     		adr	r1, .L49
 531 00ac D1E90001 		ldrd	r0, [r1]
 532 00b0 C3E90001 		strd	r0, [r3]
 533              	.L37:
 189:Core/Src/main.c ****   if(SensVal_I <= (-100000000)) SensVal_I = (-100000000);
 534              		.loc 1 189 3 is_stmt 1 view .LVU152
 535              		.loc 1 189 5 is_stmt 0 view .LVU153
 536 00b4 4CA3     		adr	r3, .L49+8
 537 00b6 D3E90023 		ldrd	r2, [r3]
 538 00ba 5849     		ldr	r1, .L49+60
 539 00bc D1E90001 		ldrd	r0, [r1]
 540 00c0 FFF7FEFF 		bl	__aeabi_dcmple
 541              	.LVL26:
 542 00c4 28B1     		cbz	r0, .L39
 543              		.loc 1 189 33 is_stmt 1 discriminator 1 view .LVU154
 544              		.loc 1 189 43 is_stmt 0 discriminator 1 view .LVU155
 545 00c6 554B     		ldr	r3, .L49+60
 546 00c8 47A1     		adr	r1, .L49+8
 547 00ca D1E90001 		ldrd	r0, [r1]
ARM GAS  C:\Users\User\AppData\Local\Temp\cc3QJOlW.s 			page 14


 548 00ce C3E90001 		strd	r0, [r3]
 549              	.L39:
 190:Core/Src/main.c ****   SensVal_D = SensValBuf - SensVal;       //左右のセンサー値の差の変化
 550              		.loc 1 190 3 is_stmt 1 view .LVU156
 551              		.loc 1 190 26 is_stmt 0 view .LVU157
 552 00d2 544B     		ldr	r3, .L49+68
 553 00d4 1A68     		ldr	r2, [r3]
 554              		.loc 1 190 13 view .LVU158
 555 00d6 A2EB0408 		sub	r8, r2, r4
 556              	.LVL27:
 191:Core/Src/main.c ****   SensValBuf = SensVal;
 557              		.loc 1 191 3 is_stmt 1 view .LVU159
 558              		.loc 1 191 14 is_stmt 0 view .LVU160
 559 00da 1C60     		str	r4, [r3]
 192:Core/Src/main.c ****   MotorR = ((CommSpeed - ((SensVal * PGain)+(SensVal_I*IGain)-(SensVal_D*DGain)))/10); 
 560              		.loc 1 192 3 is_stmt 1 view .LVU161
 561              		.loc 1 192 24 is_stmt 0 view .LVU162
 562 00dc 4B4B     		ldr	r3, .L49+44
 563 00de 1868     		ldr	r0, [r3]
 564 00e0 FFF7FEFF 		bl	__aeabi_i2d
 565              	.LVL28:
 566 00e4 0446     		mov	r4, r0
 567              	.LVL29:
 568              		.loc 1 192 24 view .LVU163
 569 00e6 0D46     		mov	r5, r1
 570              		.loc 1 192 36 view .LVU164
 571 00e8 0022     		movs	r2, #0
 572 00ea 4F4B     		ldr	r3, .L49+72
 573 00ec 3046     		mov	r0, r6
 574 00ee 3946     		mov	r1, r7
 575 00f0 FFF7FEFF 		bl	__aeabi_dmul
 576              	.LVL30:
 577 00f4 0646     		mov	r6, r0
 578 00f6 0F46     		mov	r7, r1
 579              		.loc 1 192 55 view .LVU165
 580 00f8 3DA3     		adr	r3, .L49+16
 581 00fa D3E90023 		ldrd	r2, [r3]
 582 00fe 4749     		ldr	r1, .L49+60
 583 0100 D1E90001 		ldrd	r0, [r1]
 584 0104 FFF7FEFF 		bl	__aeabi_dmul
 585              	.LVL31:
 586 0108 0246     		mov	r2, r0
 587 010a 0B46     		mov	r3, r1
 588              		.loc 1 192 44 view .LVU166
 589 010c 3046     		mov	r0, r6
 590 010e 3946     		mov	r1, r7
 591 0110 FFF7FEFF 		bl	__aeabi_dadd
 592              	.LVL32:
 593 0114 0646     		mov	r6, r0
 594 0116 0F46     		mov	r7, r1
 595              		.loc 1 192 73 view .LVU167
 596 0118 4046     		mov	r0, r8
 597 011a FFF7FEFF 		bl	__aeabi_i2d
 598              	.LVL33:
 599 011e 0022     		movs	r2, #0
 600 0120 0023     		movs	r3, #0
 601 0122 FFF7FEFF 		bl	__aeabi_dmul
ARM GAS  C:\Users\User\AppData\Local\Temp\cc3QJOlW.s 			page 15


 602              	.LVL34:
 603 0126 0246     		mov	r2, r0
 604 0128 0B46     		mov	r3, r1
 605              		.loc 1 192 62 view .LVU168
 606 012a 3046     		mov	r0, r6
 607 012c 3946     		mov	r1, r7
 608 012e FFF7FEFF 		bl	__aeabi_dsub
 609              	.LVL35:
 610 0132 0646     		mov	r6, r0
 611 0134 0F46     		mov	r7, r1
 612              		.loc 1 192 24 view .LVU169
 613 0136 0246     		mov	r2, r0
 614 0138 0B46     		mov	r3, r1
 615 013a 2046     		mov	r0, r4
 616 013c 2946     		mov	r1, r5
 617 013e FFF7FEFF 		bl	__aeabi_dsub
 618              	.LVL36:
 619              		.loc 1 192 82 view .LVU170
 620 0142 0022     		movs	r2, #0
 621 0144 394B     		ldr	r3, .L49+76
 622 0146 FFF7FEFF 		bl	__aeabi_ddiv
 623              	.LVL37:
 624              		.loc 1 192 10 view .LVU171
 625 014a FFF7FEFF 		bl	__aeabi_d2iz
 626              	.LVL38:
 627 014e 384A     		ldr	r2, .L49+80
 628 0150 1060     		str	r0, [r2]
 193:Core/Src/main.c ****   if(MotorR < 0 ){
 629              		.loc 1 193 3 is_stmt 1 view .LVU172
 630              		.loc 1 193 5 is_stmt 0 view .LVU173
 631 0152 0028     		cmp	r0, #0
 632 0154 39DB     		blt	.L47
 633              	.L41:
 194:Core/Src/main.c ****       MotorL = MotorR * (-1);
 195:Core/Src/main.c ****   }
 196:Core/Src/main.c ****   MotorL = ((CommSpeed + ((SensVal * PGain)+(SensVal_I*IGain)-(SensVal_D*DGain)))/10);
 634              		.loc 1 196 3 is_stmt 1 view .LVU174
 635              		.loc 1 196 24 is_stmt 0 view .LVU175
 636 0156 3246     		mov	r2, r6
 637 0158 3B46     		mov	r3, r7
 638 015a 2046     		mov	r0, r4
 639 015c 2946     		mov	r1, r5
 640 015e FFF7FEFF 		bl	__aeabi_dadd
 641              	.LVL39:
 642              		.loc 1 196 82 view .LVU176
 643 0162 0022     		movs	r2, #0
 644 0164 314B     		ldr	r3, .L49+76
 645 0166 FFF7FEFF 		bl	__aeabi_ddiv
 646              	.LVL40:
 647              		.loc 1 196 10 view .LVU177
 648 016a FFF7FEFF 		bl	__aeabi_d2iz
 649              	.LVL41:
 650 016e 314A     		ldr	r2, .L49+84
 651 0170 1060     		str	r0, [r2]
 197:Core/Src/main.c ****   if(MotorL < 0 ){
 652              		.loc 1 197 3 is_stmt 1 view .LVU178
 653              		.loc 1 197 5 is_stmt 0 view .LVU179
ARM GAS  C:\Users\User\AppData\Local\Temp\cc3QJOlW.s 			page 16


 654 0172 0028     		cmp	r0, #0
 655 0174 2DDB     		blt	.L48
 656              	.L42:
 198:Core/Src/main.c ****       MotorR = MotorL * (-1);
 199:Core/Src/main.c ****   }
 200:Core/Src/main.c ****   ledval = (SensVal_IBuf / (-100000));
 657              		.loc 1 200 3 is_stmt 1 view .LVU180
 658              		.loc 1 200 26 is_stmt 0 view .LVU181
 659 0176 20A3     		adr	r3, .L49+24
 660 0178 D3E90023 		ldrd	r2, [r3]
 661 017c 5046     		mov	r0, r10
 662 017e 5946     		mov	r1, fp
 663 0180 FFF7FEFF 		bl	__aeabi_ddiv
 664              	.LVL42:
 665              		.loc 1 200 10 view .LVU182
 666 0184 FFF7FEFF 		bl	__aeabi_d2iz
 667              	.LVL43:
 668 0188 2B4B     		ldr	r3, .L49+88
 669 018a 1860     		str	r0, [r3]
 201:Core/Src/main.c ****   //MotorR = int(CommSpeed - (SensVal * PGainCLB));
 202:Core/Src/main.c ****   //MotorL = int(CommSpeed + (SensVal * PGainCLB));
 203:Core/Src/main.c ****   }
 670              		.loc 1 203 3 view .LVU183
 671 018c BDE8F88F 		pop	{r3, r4, r5, r6, r7, r8, r9, r10, fp, pc}
 672              	.LVL44:
 673              	.L32:
 174:Core/Src/main.c ****     HAL_GPIO_TogglePin(LED_4_GPIO_Port,LED_4_Pin);
 674              		.loc 1 174 5 is_stmt 1 view .LVU184
 174:Core/Src/main.c ****     HAL_GPIO_TogglePin(LED_4_GPIO_Port,LED_4_Pin);
 675              		.loc 1 174 14 is_stmt 0 view .LVU185
 676 0190 1E4B     		ldr	r3, .L49+44
 677 0192 42F22832 		movw	r2, #9000
 678 0196 1A60     		str	r2, [r3]
 175:Core/Src/main.c ****     HAL_GPIO_WritePin(LED_2_GPIO_Port,LED_2_Pin,0);
 679              		.loc 1 175 5 is_stmt 1 view .LVU186
 680 0198 1D4D     		ldr	r5, .L49+48
 681 019a 8021     		movs	r1, #128
 682 019c 2846     		mov	r0, r5
 683 019e FFF7FEFF 		bl	HAL_GPIO_TogglePin
 684              	.LVL45:
 176:Core/Src/main.c ****   }
 685              		.loc 1 176 5 view .LVU187
 686 01a2 0022     		movs	r2, #0
 687 01a4 2021     		movs	r1, #32
 688 01a6 2846     		mov	r0, r5
 689 01a8 FFF7FEFF 		bl	HAL_GPIO_WritePin
 690              	.LVL46:
 691 01ac 44E7     		b	.L33
 692              	.L46:
 179:Core/Src/main.c ****     turnFlg=1;
 693              		.loc 1 179 22 is_stmt 0 discriminator 1 view .LVU188
 694 01ae 1A4B     		ldr	r3, .L49+56
 695 01b0 1B78     		ldrb	r3, [r3]	@ zero_extendqisi2
 179:Core/Src/main.c ****     turnFlg=1;
 696              		.loc 1 179 19 discriminator 1 view .LVU189
 697 01b2 002B     		cmp	r3, #0
 698 01b4 7FF44AAF 		bne	.L35
ARM GAS  C:\Users\User\AppData\Local\Temp\cc3QJOlW.s 			page 17


 180:Core/Src/main.c ****     SensVal_I = 0;
 699              		.loc 1 180 5 is_stmt 1 view .LVU190
 180:Core/Src/main.c ****     SensVal_I = 0;
 700              		.loc 1 180 12 is_stmt 0 view .LVU191
 701 01b8 174B     		ldr	r3, .L49+56
 702 01ba 0122     		movs	r2, #1
 703 01bc 1A70     		strb	r2, [r3]
 181:Core/Src/main.c ****   }else if (SensVal >= 0 && turnFlg){//turnR
 704              		.loc 1 181 5 is_stmt 1 view .LVU192
 181:Core/Src/main.c ****   }else if (SensVal >= 0 && turnFlg){//turnR
 705              		.loc 1 181 15 is_stmt 0 view .LVU193
 706 01be 174B     		ldr	r3, .L49+60
 707 01c0 0020     		movs	r0, #0
 708 01c2 0021     		movs	r1, #0
 709 01c4 C3E90001 		strd	r0, [r3]
 710 01c8 4DE7     		b	.L36
 711              	.LVL47:
 712              	.L47:
 194:Core/Src/main.c ****   }
 713              		.loc 1 194 7 is_stmt 1 view .LVU194
 194:Core/Src/main.c ****   }
 714              		.loc 1 194 23 is_stmt 0 view .LVU195
 715 01ca 4342     		rsbs	r3, r0, #0
 194:Core/Src/main.c ****   }
 716              		.loc 1 194 14 view .LVU196
 717 01cc 194A     		ldr	r2, .L49+84
 718 01ce 1360     		str	r3, [r2]
 719 01d0 C1E7     		b	.L41
 720              	.L48:
 198:Core/Src/main.c ****   }
 721              		.loc 1 198 7 is_stmt 1 view .LVU197
 198:Core/Src/main.c ****   }
 722              		.loc 1 198 23 is_stmt 0 view .LVU198
 723 01d2 4342     		rsbs	r3, r0, #0
 198:Core/Src/main.c ****   }
 724              		.loc 1 198 14 view .LVU199
 725 01d4 164A     		ldr	r2, .L49+80
 726 01d6 1360     		str	r3, [r2]
 727 01d8 CDE7     		b	.L42
 728              	.L50:
 729 01da 00BFAFF3 		.align	3
 729      0080
 730              	.L49:
 731 01e0 00000000 		.word	0
 732 01e4 84D79741 		.word	1100470148
 733 01e8 00000000 		.word	0
 734 01ec 84D797C1 		.word	-1047013500
 735 01f0 8DEDB5A0 		.word	-1598689907
 736 01f4 F7C6B03E 		.word	1051772663
 737 01f8 00000000 		.word	0
 738 01fc 006AF8C0 		.word	-1057461760
 739 0200 00000000 		.word	.LANCHOR2
 740 0204 00000000 		.word	.LANCHOR3
 741 0208 00000000 		.word	.LANCHOR9
 742 020c 00000000 		.word	.LANCHOR13
 743 0210 00040048 		.word	1207960576
 744 0214 00000000 		.word	.LANCHOR14
ARM GAS  C:\Users\User\AppData\Local\Temp\cc3QJOlW.s 			page 18


 745 0218 00000000 		.word	.LANCHOR15
 746 021c 00000000 		.word	.LANCHOR16
 747 0220 00000000 		.word	.LANCHOR17
 748 0224 00000000 		.word	.LANCHOR18
 749 0228 00405040 		.word	1079001088
 750 022c 00002440 		.word	1076101120
 751 0230 00000000 		.word	.LANCHOR19
 752 0234 00000000 		.word	.LANCHOR20
 753 0238 00000000 		.word	.LANCHOR21
 754              		.cfi_endproc
 755              	.LFE129:
 757              		.section	.text.stop,"ax",%progbits
 758              		.align	1
 759              		.global	stop
 760              		.syntax unified
 761              		.thumb
 762              		.thumb_func
 764              	stop:
 765              	.LFB130:
 204:Core/Src/main.c ****   /*void stop2(void){
 205:Core/Src/main.c ****     if(stopFlg==2)
 206:Core/Src/main.c ****   }*/
 207:Core/Src/main.c ****   void stop(void){
 766              		.loc 1 207 18 is_stmt 1 view -0
 767              		.cfi_startproc
 768              		@ args = 0, pretend = 0, frame = 0
 769              		@ frame_needed = 0, uses_anonymous_args = 0
 770              		@ link register save eliminated.
 208:Core/Src/main.c ****     if((Side_SensorL > 1600) && (Side_SensorR > 2000)){
 771              		.loc 1 208 5 view .LVU201
 772              		.loc 1 208 22 is_stmt 0 view .LVU202
 773 0000 1B4B     		ldr	r3, .L58
 774 0002 1B68     		ldr	r3, [r3]
 775              		.loc 1 208 7 view .LVU203
 776 0004 B3F5C86F 		cmp	r3, #1600
 777 0008 20DD     		ble	.L52
 778              		.loc 1 208 47 discriminator 1 view .LVU204
 779 000a 1A4A     		ldr	r2, .L58+4
 780 000c 1268     		ldr	r2, [r2]
 781              		.loc 1 208 30 discriminator 1 view .LVU205
 782 000e B2F5FA6F 		cmp	r2, #2000
 783 0012 1BDD     		ble	.L52
 209:Core/Src/main.c ****         if(Flag == 1){
 784              		.loc 1 209 9 is_stmt 1 view .LVU206
 785              		.loc 1 209 17 is_stmt 0 view .LVU207
 786 0014 184B     		ldr	r3, .L58+8
 787 0016 1B68     		ldr	r3, [r3]
 788              		.loc 1 209 11 view .LVU208
 789 0018 012B     		cmp	r3, #1
 790 001a 27D1     		bne	.L51
 210:Core/Src/main.c ****             Flag = 0;
 791              		.loc 1 210 13 is_stmt 1 view .LVU209
 792              		.loc 1 210 18 is_stmt 0 view .LVU210
 793 001c 164B     		ldr	r3, .L58+8
 794 001e 0022     		movs	r2, #0
 795 0020 1A60     		str	r2, [r3]
 211:Core/Src/main.c ****             if((FlagL == 1) && (FlagR == 1)){
ARM GAS  C:\Users\User\AppData\Local\Temp\cc3QJOlW.s 			page 19


 796              		.loc 1 211 13 is_stmt 1 view .LVU211
 797              		.loc 1 211 23 is_stmt 0 view .LVU212
 798 0022 164B     		ldr	r3, .L58+12
 799 0024 1B68     		ldr	r3, [r3]
 800              		.loc 1 211 15 view .LVU213
 801 0026 012B     		cmp	r3, #1
 802 0028 0BD0     		beq	.L57
 803              	.L54:
 212:Core/Src/main.c ****             }else{
 213:Core/Src/main.c ****                 if(FlagL == 1){
 804              		.loc 1 213 17 is_stmt 1 view .LVU214
 805              		.loc 1 213 19 is_stmt 0 view .LVU215
 806 002a 012B     		cmp	r3, #1
 807 002c 03D0     		beq	.L55
 214:Core/Src/main.c ****                 }else{
 215:Core/Src/main.c ****                     stopFlg ++;
 808              		.loc 1 215 21 is_stmt 1 view .LVU216
 809              		.loc 1 215 29 is_stmt 0 view .LVU217
 810 002e 144A     		ldr	r2, .L58+16
 811 0030 1378     		ldrb	r3, [r2]	@ zero_extendqisi2
 812 0032 0133     		adds	r3, r3, #1
 813 0034 1370     		strb	r3, [r2]
 814              	.L55:
 216:Core/Src/main.c ****                 }
 217:Core/Src/main.c ****             }
 218:Core/Src/main.c ****             FlagL = 0;
 815              		.loc 1 218 13 is_stmt 1 view .LVU218
 816              		.loc 1 218 19 is_stmt 0 view .LVU219
 817 0036 0023     		movs	r3, #0
 818 0038 104A     		ldr	r2, .L58+12
 819 003a 1360     		str	r3, [r2]
 219:Core/Src/main.c ****             FlagR = 0;
 820              		.loc 1 219 13 is_stmt 1 view .LVU220
 821              		.loc 1 219 19 is_stmt 0 view .LVU221
 822 003c 114A     		ldr	r2, .L58+20
 823 003e 1360     		str	r3, [r2]
 824 0040 7047     		bx	lr
 825              	.L57:
 211:Core/Src/main.c ****             }else{
 826              		.loc 1 211 39 discriminator 1 view .LVU222
 827 0042 104A     		ldr	r2, .L58+20
 828 0044 1268     		ldr	r2, [r2]
 211:Core/Src/main.c ****             }else{
 829              		.loc 1 211 29 discriminator 1 view .LVU223
 830 0046 012A     		cmp	r2, #1
 831 0048 EFD1     		bne	.L54
 832 004a F4E7     		b	.L55
 833              	.L52:
 220:Core/Src/main.c ****         }
 221:Core/Src/main.c ****     }else{
 222:Core/Src/main.c ****         Flag = 1;
 834              		.loc 1 222 9 is_stmt 1 view .LVU224
 835              		.loc 1 222 14 is_stmt 0 view .LVU225
 836 004c 0A4A     		ldr	r2, .L58+8
 837 004e 0121     		movs	r1, #1
 838 0050 1160     		str	r1, [r2]
 223:Core/Src/main.c ****         if(Side_SensorL < 1600)FlagL = 1;
ARM GAS  C:\Users\User\AppData\Local\Temp\cc3QJOlW.s 			page 20


 839              		.loc 1 223 9 is_stmt 1 view .LVU226
 840              		.loc 1 223 11 is_stmt 0 view .LVU227
 841 0052 B3F5C86F 		cmp	r3, #1600
 842 0056 01DA     		bge	.L56
 843              		.loc 1 223 32 is_stmt 1 discriminator 1 view .LVU228
 844              		.loc 1 223 38 is_stmt 0 discriminator 1 view .LVU229
 845 0058 084B     		ldr	r3, .L58+12
 846 005a 1960     		str	r1, [r3]
 847              	.L56:
 224:Core/Src/main.c ****         if(Side_SensorR < 2000)FlagR = 1;
 848              		.loc 1 224 9 is_stmt 1 view .LVU230
 849              		.loc 1 224 25 is_stmt 0 view .LVU231
 850 005c 054B     		ldr	r3, .L58+4
 851 005e 1B68     		ldr	r3, [r3]
 852              		.loc 1 224 11 view .LVU232
 853 0060 B3F5FA6F 		cmp	r3, #2000
 854 0064 02DA     		bge	.L51
 855              		.loc 1 224 32 is_stmt 1 discriminator 1 view .LVU233
 856              		.loc 1 224 38 is_stmt 0 discriminator 1 view .LVU234
 857 0066 074B     		ldr	r3, .L58+20
 858 0068 0122     		movs	r2, #1
 859 006a 1A60     		str	r2, [r3]
 860              	.L51:
 225:Core/Src/main.c ****     }
 226:Core/Src/main.c **** }
 861              		.loc 1 226 1 view .LVU235
 862 006c 7047     		bx	lr
 863              	.L59:
 864 006e 00BF     		.align	2
 865              	.L58:
 866 0070 00000000 		.word	.LANCHOR8
 867 0074 00000000 		.word	.LANCHOR7
 868 0078 00000000 		.word	.LANCHOR22
 869 007c 00000000 		.word	.LANCHOR23
 870 0080 00000000 		.word	.LANCHOR14
 871 0084 00000000 		.word	.LANCHOR24
 872              		.cfi_endproc
 873              	.LFE130:
 875              		.section	.text.HAL_TIM_PeriodElapsedCallback,"ax",%progbits
 876              		.align	1
 877              		.global	HAL_TIM_PeriodElapsedCallback
 878              		.syntax unified
 879              		.thumb
 880              		.thumb_func
 882              	HAL_TIM_PeriodElapsedCallback:
 883              	.LVL48:
 884              	.LFB131:
 227:Core/Src/main.c ****   void HAL_TIM_PeriodElapsedCallback(TIM_HandleTypeDef *htim)
 228:Core/Src/main.c ****   {
 885              		.loc 1 228 3 is_stmt 1 view -0
 886              		.cfi_startproc
 887              		@ args = 0, pretend = 0, frame = 0
 888              		@ frame_needed = 0, uses_anonymous_args = 0
 889              		.loc 1 228 3 is_stmt 0 view .LVU237
 890 0000 10B5     		push	{r4, lr}
 891              	.LCFI7:
 892              		.cfi_def_cfa_offset 8
ARM GAS  C:\Users\User\AppData\Local\Temp\cc3QJOlW.s 			page 21


 893              		.cfi_offset 4, -8
 894              		.cfi_offset 14, -4
 895 0002 0446     		mov	r4, r0
 229:Core/Src/main.c ****     if(htim->Instance == TIM2){
 896              		.loc 1 229 5 is_stmt 1 view .LVU238
 897              		.loc 1 229 12 is_stmt 0 view .LVU239
 898 0004 0368     		ldr	r3, [r0]
 899              		.loc 1 229 7 view .LVU240
 900 0006 B3F1804F 		cmp	r3, #1073741824
 901 000a 04D0     		beq	.L64
 902              	.LVL49:
 903              	.L61:
 230:Core/Src/main.c ****       sensGet();
 231:Core/Src/main.c ****     }
 232:Core/Src/main.c ****     if(htim->Instance == TIM3){
 904              		.loc 1 232 5 is_stmt 1 view .LVU241
 905              		.loc 1 232 12 is_stmt 0 view .LVU242
 906 000c 2268     		ldr	r2, [r4]
 907              		.loc 1 232 7 view .LVU243
 908 000e 084B     		ldr	r3, .L66
 909 0010 9A42     		cmp	r2, r3
 910 0012 03D0     		beq	.L65
 911              	.L60:
 233:Core/Src/main.c ****       SensUp();
 234:Core/Src/main.c ****       Side_SensUp();
 235:Core/Src/main.c ****       LineTrace();
 236:Core/Src/main.c ****       stop();
 237:Core/Src/main.c ****     }
 238:Core/Src/main.c ****   }/*
 912              		.loc 1 238 3 view .LVU244
 913 0014 10BD     		pop	{r4, pc}
 914              	.LVL50:
 915              	.L64:
 230:Core/Src/main.c ****       sensGet();
 916              		.loc 1 230 7 is_stmt 1 view .LVU245
 917 0016 FFF7FEFF 		bl	sensGet
 918              	.LVL51:
 230:Core/Src/main.c ****       sensGet();
 919              		.loc 1 230 7 is_stmt 0 view .LVU246
 920 001a F7E7     		b	.L61
 921              	.L65:
 233:Core/Src/main.c ****       SensUp();
 922              		.loc 1 233 7 is_stmt 1 view .LVU247
 923 001c FFF7FEFF 		bl	SensUp
 924              	.LVL52:
 234:Core/Src/main.c ****       LineTrace();
 925              		.loc 1 234 7 view .LVU248
 926 0020 FFF7FEFF 		bl	Side_SensUp
 927              	.LVL53:
 235:Core/Src/main.c ****       stop();
 928              		.loc 1 235 7 view .LVU249
 929 0024 FFF7FEFF 		bl	LineTrace
 930              	.LVL54:
 236:Core/Src/main.c ****     }
 931              		.loc 1 236 7 view .LVU250
 932 0028 FFF7FEFF 		bl	stop
 933              	.LVL55:
ARM GAS  C:\Users\User\AppData\Local\Temp\cc3QJOlW.s 			page 22


 934              		.loc 1 238 3 is_stmt 0 view .LVU251
 935 002c F2E7     		b	.L60
 936              	.L67:
 937 002e 00BF     		.align	2
 938              	.L66:
 939 0030 00040040 		.word	1073742848
 940              		.cfi_endproc
 941              	.LFE131:
 943              		.section	.text._write,"ax",%progbits
 944              		.align	1
 945              		.global	_write
 946              		.syntax unified
 947              		.thumb
 948              		.thumb_func
 950              	_write:
 951              	.LVL56:
 952              	.LFB134:
 239:Core/Src/main.c ****   PUTCHAR_PROTOTYPE {
 240:Core/Src/main.c **** 	HAL_UART_Transmit(&huart2, (uint16_t *)&analog2, 1, 0xFFFF);
 241:Core/Src/main.c **** 	return analog2;
 242:Core/Src/main.c **** }*/
 243:Core/Src/main.c **** /* USER CODE END 0 */
 244:Core/Src/main.c **** 
 245:Core/Src/main.c **** /**
 246:Core/Src/main.c ****   * @brief  The application entry point.
 247:Core/Src/main.c ****   * @retval int
 248:Core/Src/main.c ****   */
 249:Core/Src/main.c **** int main(void)
 250:Core/Src/main.c **** {
 251:Core/Src/main.c ****   /* USER CODE BEGIN 1 */
 252:Core/Src/main.c ****   /* USER CODE END 1 */
 253:Core/Src/main.c **** 
 254:Core/Src/main.c ****   /* MCU Configuration--------------------------------------------------------*/
 255:Core/Src/main.c **** 
 256:Core/Src/main.c ****   /* Reset of all peripherals, Initializes the Flash interface and the Systick. */
 257:Core/Src/main.c ****   HAL_Init();
 258:Core/Src/main.c **** 
 259:Core/Src/main.c ****   /* USER CODE BEGIN Init */
 260:Core/Src/main.c **** 
 261:Core/Src/main.c ****   /* USER CODE END Init */
 262:Core/Src/main.c **** 
 263:Core/Src/main.c ****   /* Configure the system clock */
 264:Core/Src/main.c ****   SystemClock_Config();
 265:Core/Src/main.c **** 
 266:Core/Src/main.c ****   /* USER CODE BEGIN SysInit */
 267:Core/Src/main.c **** 
 268:Core/Src/main.c ****   /* USER CODE END SysInit */
 269:Core/Src/main.c **** 
 270:Core/Src/main.c ****   /* Initialize all configured peripherals */
 271:Core/Src/main.c ****   MX_GPIO_Init();
 272:Core/Src/main.c ****   MX_DMA_Init();
 273:Core/Src/main.c ****   MX_USART2_UART_Init();
 274:Core/Src/main.c ****   MX_ADC1_Init();
 275:Core/Src/main.c ****   MX_ADC2_Init();
 276:Core/Src/main.c ****   MX_TIM1_Init();
 277:Core/Src/main.c ****   MX_TIM3_Init();
 278:Core/Src/main.c ****   MX_TIM2_Init();
ARM GAS  C:\Users\User\AppData\Local\Temp\cc3QJOlW.s 			page 23


 279:Core/Src/main.c ****   /* USER CODE BEGIN 2 */
 280:Core/Src/main.c ****   HAL_GPIO_WritePin(LED_2_GPIO_Port,LED_2_Pin,1);
 281:Core/Src/main.c ****   HAL_GPIO_WritePin(LED_3_GPIO_Port,LED_3_Pin,1);
 282:Core/Src/main.c ****   HAL_GPIO_WritePin(LED_4_GPIO_Port,LED_4_Pin,1);
 283:Core/Src/main.c ****   HAL_TIM_Base_Start_IT(&htim2);
 284:Core/Src/main.c ****   HAL_TIM_Base_Start_IT(&htim3);
 285:Core/Src/main.c ****   if(HAL_TIM_PWM_Start(&htim1, TIM_CHANNEL_1) != HAL_OK) { Error_Handler(); }
 286:Core/Src/main.c ****   HAL_GPIO_WritePin(LED_4_GPIO_Port,LED_4_Pin,0);
 287:Core/Src/main.c ****   if(HAL_TIM_PWM_Start(&htim1, TIM_CHANNEL_3) != HAL_OK) { Error_Handler(); }
 288:Core/Src/main.c ****   HAL_GPIO_WritePin(LED_3_GPIO_Port,LED_3_Pin,0);
 289:Core/Src/main.c ****   if(HAL_ADC_Start_DMA(&hadc1, (uint32_t *) analog1, 2) != HAL_OK){
 290:Core/Src/main.c ****     Error_Handler();
 291:Core/Src/main.c ****   }
 292:Core/Src/main.c ****   HAL_GPIO_WritePin(LED_2_GPIO_Port,LED_2_Pin,0);
 293:Core/Src/main.c ****   if(HAL_ADC_Start_DMA(&hadc2, (uint32_t *) analog2, 3) != HAL_OK){
 294:Core/Src/main.c ****     Error_Handler();
 295:Core/Src/main.c ****   }
 296:Core/Src/main.c ****   while(1){
 297:Core/Src/main.c ****     while(button_state){
 298:Core/Src/main.c ****       HAL_GPIO_WritePin(GPIOA, GPIO_PIN_12, 1);
 299:Core/Src/main.c ****       __HAL_TIM_SET_COMPARE(&htim1, TIM_CHANNEL_1,0);
 300:Core/Src/main.c ****       HAL_GPIO_WritePin(GPIOA, GPIO_PIN_9, 0);
 301:Core/Src/main.c ****       __HAL_TIM_SET_COMPARE(&htim1, TIM_CHANNEL_3,0);
 302:Core/Src/main.c ****       button_state = HAL_GPIO_ReadPin(KEY1_GPIO_Port,KEY1_Pin);
 303:Core/Src/main.c ****       HAL_GPIO_WritePin(LED_3_GPIO_Port,LED_3_Pin,0);
 304:Core/Src/main.c ****     }
 305:Core/Src/main.c ****     HAL_Delay(1000);
 306:Core/Src/main.c ****     button_state=1;
 307:Core/Src/main.c **** 
 308:Core/Src/main.c ****   //HAL_UART_Receive_IT(&huart2, (uint16_t *)analog2, sizeof(analog2)/sizeof(analog2[0]));
 309:Core/Src/main.c ****   /* USER CODE END 2 */
 310:Core/Src/main.c **** 
 311:Core/Src/main.c ****   /* Infinite loop */
 312:Core/Src/main.c ****   /* USER CODE BEGIN WHILE */
 313:Core/Src/main.c **** 
 314:Core/Src/main.c ****     while (1)
 315:Core/Src/main.c ****     {
 316:Core/Src/main.c ****     /* USER CODE END WHILE */
 317:Core/Src/main.c **** 
 318:Core/Src/main.c ****     /* USER CODE BEGIN 3 */
 319:Core/Src/main.c ****       HAL_GPIO_WritePin(GPIOA, GPIO_PIN_12, 1);
 320:Core/Src/main.c ****       __HAL_TIM_SET_COMPARE(&htim1, TIM_CHANNEL_1,MotorL);
 321:Core/Src/main.c ****       HAL_GPIO_WritePin(GPIOA, GPIO_PIN_9, 0);
 322:Core/Src/main.c ****       __HAL_TIM_SET_COMPARE(&htim1, TIM_CHANNEL_3,MotorR);
 323:Core/Src/main.c ****       //printf("%d\r\n",Side_SensorR);
 324:Core/Src/main.c ****     //HAL_GPIO_WritePin(LED_4_GPIO_Port,LED_4_Pin,analog2[3]%2);
 325:Core/Src/main.c ****   //if(!(button_state))break;
 326:Core/Src/main.c ****     }
 327:Core/Src/main.c ****   }
 328:Core/Src/main.c ****   /* USER CODE END 3 */
 329:Core/Src/main.c **** }
 330:Core/Src/main.c **** 
 331:Core/Src/main.c **** /**
 332:Core/Src/main.c ****   * @brief System Clock Configuration
 333:Core/Src/main.c ****   * @retval None
 334:Core/Src/main.c ****   */
 335:Core/Src/main.c **** void SystemClock_Config(void)
ARM GAS  C:\Users\User\AppData\Local\Temp\cc3QJOlW.s 			page 24


 336:Core/Src/main.c **** {
 337:Core/Src/main.c ****   RCC_OscInitTypeDef RCC_OscInitStruct = {0};
 338:Core/Src/main.c ****   RCC_ClkInitTypeDef RCC_ClkInitStruct = {0};
 339:Core/Src/main.c ****   RCC_PeriphCLKInitTypeDef PeriphClkInit = {0};
 340:Core/Src/main.c **** 
 341:Core/Src/main.c ****   /** Initializes the RCC Oscillators according to the specified parameters
 342:Core/Src/main.c ****   * in the RCC_OscInitTypeDef structure.
 343:Core/Src/main.c ****   */
 344:Core/Src/main.c ****   RCC_OscInitStruct.OscillatorType = RCC_OSCILLATORTYPE_HSI;
 345:Core/Src/main.c ****   RCC_OscInitStruct.HSIState = RCC_HSI_ON;
 346:Core/Src/main.c ****   RCC_OscInitStruct.HSICalibrationValue = RCC_HSICALIBRATION_DEFAULT;
 347:Core/Src/main.c ****   RCC_OscInitStruct.PLL.PLLState = RCC_PLL_ON;
 348:Core/Src/main.c ****   RCC_OscInitStruct.PLL.PLLSource = RCC_PLLSOURCE_HSI;
 349:Core/Src/main.c ****   RCC_OscInitStruct.PLL.PLLMUL = RCC_PLL_MUL16;
 350:Core/Src/main.c ****   if (HAL_RCC_OscConfig(&RCC_OscInitStruct) != HAL_OK)
 351:Core/Src/main.c ****   {
 352:Core/Src/main.c ****     Error_Handler();
 353:Core/Src/main.c ****   }
 354:Core/Src/main.c **** 
 355:Core/Src/main.c ****   /** Initializes the CPU, AHB and APB buses clocks
 356:Core/Src/main.c ****   */
 357:Core/Src/main.c ****   RCC_ClkInitStruct.ClockType = RCC_CLOCKTYPE_HCLK|RCC_CLOCKTYPE_SYSCLK
 358:Core/Src/main.c ****                               |RCC_CLOCKTYPE_PCLK1|RCC_CLOCKTYPE_PCLK2;
 359:Core/Src/main.c ****   RCC_ClkInitStruct.SYSCLKSource = RCC_SYSCLKSOURCE_PLLCLK;
 360:Core/Src/main.c ****   RCC_ClkInitStruct.AHBCLKDivider = RCC_SYSCLK_DIV1;
 361:Core/Src/main.c ****   RCC_ClkInitStruct.APB1CLKDivider = RCC_HCLK_DIV2;
 362:Core/Src/main.c ****   RCC_ClkInitStruct.APB2CLKDivider = RCC_HCLK_DIV1;
 363:Core/Src/main.c **** 
 364:Core/Src/main.c ****   if (HAL_RCC_ClockConfig(&RCC_ClkInitStruct, FLASH_LATENCY_2) != HAL_OK)
 365:Core/Src/main.c ****   {
 366:Core/Src/main.c ****     Error_Handler();
 367:Core/Src/main.c ****   }
 368:Core/Src/main.c ****   PeriphClkInit.PeriphClockSelection = RCC_PERIPHCLK_TIM1;
 369:Core/Src/main.c ****   PeriphClkInit.Tim1ClockSelection = RCC_TIM1CLK_HCLK;
 370:Core/Src/main.c ****   if (HAL_RCCEx_PeriphCLKConfig(&PeriphClkInit) != HAL_OK)
 371:Core/Src/main.c ****   {
 372:Core/Src/main.c ****     Error_Handler();
 373:Core/Src/main.c ****   }
 374:Core/Src/main.c **** }
 375:Core/Src/main.c **** 
 376:Core/Src/main.c **** /* USER CODE BEGIN 4 */
 377:Core/Src/main.c **** 
 378:Core/Src/main.c **** int _write(int file, char *ptr, int len)
 379:Core/Src/main.c **** {
 953              		.loc 1 379 1 is_stmt 1 view -0
 954              		.cfi_startproc
 955              		@ args = 0, pretend = 0, frame = 0
 956              		@ frame_needed = 0, uses_anonymous_args = 0
 957              		.loc 1 379 1 is_stmt 0 view .LVU253
 958 0000 10B5     		push	{r4, lr}
 959              	.LCFI8:
 960              		.cfi_def_cfa_offset 8
 961              		.cfi_offset 4, -8
 962              		.cfi_offset 14, -4
 963 0002 1446     		mov	r4, r2
 380:Core/Src/main.c ****   HAL_UART_Transmit(&huart2,(uint16_t *)ptr,len,10);
 964              		.loc 1 380 3 is_stmt 1 view .LVU254
ARM GAS  C:\Users\User\AppData\Local\Temp\cc3QJOlW.s 			page 25


 965 0004 0A23     		movs	r3, #10
 966 0006 92B2     		uxth	r2, r2
 967              	.LVL57:
 968              		.loc 1 380 3 is_stmt 0 view .LVU255
 969 0008 0248     		ldr	r0, .L70
 970              	.LVL58:
 971              		.loc 1 380 3 view .LVU256
 972 000a FFF7FEFF 		bl	HAL_UART_Transmit
 973              	.LVL59:
 381:Core/Src/main.c ****   return len;
 974              		.loc 1 381 3 is_stmt 1 view .LVU257
 382:Core/Src/main.c **** }
 975              		.loc 1 382 1 is_stmt 0 view .LVU258
 976 000e 2046     		mov	r0, r4
 977 0010 10BD     		pop	{r4, pc}
 978              	.LVL60:
 979              	.L71:
 980              		.loc 1 382 1 view .LVU259
 981 0012 00BF     		.align	2
 982              	.L70:
 983 0014 00000000 		.word	huart2
 984              		.cfi_endproc
 985              	.LFE134:
 987              		.section	.text.Error_Handler,"ax",%progbits
 988              		.align	1
 989              		.global	Error_Handler
 990              		.syntax unified
 991              		.thumb
 992              		.thumb_func
 994              	Error_Handler:
 995              	.LFB135:
 383:Core/Src/main.c **** 
 384:Core/Src/main.c **** /* USER CODE END 4 */
 385:Core/Src/main.c **** 
 386:Core/Src/main.c **** /**
 387:Core/Src/main.c ****   * @brief  This function is executed in case of error occurrence.
 388:Core/Src/main.c ****   * @retval None
 389:Core/Src/main.c ****   */
 390:Core/Src/main.c **** void Error_Handler(void)
 391:Core/Src/main.c **** {
 996              		.loc 1 391 1 is_stmt 1 view -0
 997              		.cfi_startproc
 998              		@ Volatile: function does not return.
 999              		@ args = 0, pretend = 0, frame = 0
 1000              		@ frame_needed = 0, uses_anonymous_args = 0
 1001              		@ link register save eliminated.
 392:Core/Src/main.c ****   /* USER CODE BEGIN Error_Handler_Debug */
 393:Core/Src/main.c ****   /* User can add his own implementation to report the HAL error return state */
 394:Core/Src/main.c ****   __disable_irq();
 1002              		.loc 1 394 3 view .LVU261
 1003              	.LBB4:
 1004              	.LBI4:
 1005              		.file 2 "Drivers/CMSIS/Include/cmsis_gcc.h"
   1:Drivers/CMSIS/Include/cmsis_gcc.h **** /**************************************************************************//**
   2:Drivers/CMSIS/Include/cmsis_gcc.h ****  * @file     cmsis_gcc.h
   3:Drivers/CMSIS/Include/cmsis_gcc.h ****  * @brief    CMSIS compiler GCC header file
   4:Drivers/CMSIS/Include/cmsis_gcc.h ****  * @version  V5.0.4
ARM GAS  C:\Users\User\AppData\Local\Temp\cc3QJOlW.s 			page 26


   5:Drivers/CMSIS/Include/cmsis_gcc.h ****  * @date     09. April 2018
   6:Drivers/CMSIS/Include/cmsis_gcc.h ****  ******************************************************************************/
   7:Drivers/CMSIS/Include/cmsis_gcc.h **** /*
   8:Drivers/CMSIS/Include/cmsis_gcc.h ****  * Copyright (c) 2009-2018 Arm Limited. All rights reserved.
   9:Drivers/CMSIS/Include/cmsis_gcc.h ****  *
  10:Drivers/CMSIS/Include/cmsis_gcc.h ****  * SPDX-License-Identifier: Apache-2.0
  11:Drivers/CMSIS/Include/cmsis_gcc.h ****  *
  12:Drivers/CMSIS/Include/cmsis_gcc.h ****  * Licensed under the Apache License, Version 2.0 (the License); you may
  13:Drivers/CMSIS/Include/cmsis_gcc.h ****  * not use this file except in compliance with the License.
  14:Drivers/CMSIS/Include/cmsis_gcc.h ****  * You may obtain a copy of the License at
  15:Drivers/CMSIS/Include/cmsis_gcc.h ****  *
  16:Drivers/CMSIS/Include/cmsis_gcc.h ****  * www.apache.org/licenses/LICENSE-2.0
  17:Drivers/CMSIS/Include/cmsis_gcc.h ****  *
  18:Drivers/CMSIS/Include/cmsis_gcc.h ****  * Unless required by applicable law or agreed to in writing, software
  19:Drivers/CMSIS/Include/cmsis_gcc.h ****  * distributed under the License is distributed on an AS IS BASIS, WITHOUT
  20:Drivers/CMSIS/Include/cmsis_gcc.h ****  * WARRANTIES OR CONDITIONS OF ANY KIND, either express or implied.
  21:Drivers/CMSIS/Include/cmsis_gcc.h ****  * See the License for the specific language governing permissions and
  22:Drivers/CMSIS/Include/cmsis_gcc.h ****  * limitations under the License.
  23:Drivers/CMSIS/Include/cmsis_gcc.h ****  */
  24:Drivers/CMSIS/Include/cmsis_gcc.h **** 
  25:Drivers/CMSIS/Include/cmsis_gcc.h **** #ifndef __CMSIS_GCC_H
  26:Drivers/CMSIS/Include/cmsis_gcc.h **** #define __CMSIS_GCC_H
  27:Drivers/CMSIS/Include/cmsis_gcc.h **** 
  28:Drivers/CMSIS/Include/cmsis_gcc.h **** /* ignore some GCC warnings */
  29:Drivers/CMSIS/Include/cmsis_gcc.h **** #pragma GCC diagnostic push
  30:Drivers/CMSIS/Include/cmsis_gcc.h **** #pragma GCC diagnostic ignored "-Wsign-conversion"
  31:Drivers/CMSIS/Include/cmsis_gcc.h **** #pragma GCC diagnostic ignored "-Wconversion"
  32:Drivers/CMSIS/Include/cmsis_gcc.h **** #pragma GCC diagnostic ignored "-Wunused-parameter"
  33:Drivers/CMSIS/Include/cmsis_gcc.h **** 
  34:Drivers/CMSIS/Include/cmsis_gcc.h **** /* Fallback for __has_builtin */
  35:Drivers/CMSIS/Include/cmsis_gcc.h **** #ifndef __has_builtin
  36:Drivers/CMSIS/Include/cmsis_gcc.h ****   #define __has_builtin(x) (0)
  37:Drivers/CMSIS/Include/cmsis_gcc.h **** #endif
  38:Drivers/CMSIS/Include/cmsis_gcc.h **** 
  39:Drivers/CMSIS/Include/cmsis_gcc.h **** /* CMSIS compiler specific defines */
  40:Drivers/CMSIS/Include/cmsis_gcc.h **** #ifndef   __ASM
  41:Drivers/CMSIS/Include/cmsis_gcc.h ****   #define __ASM                                  __asm
  42:Drivers/CMSIS/Include/cmsis_gcc.h **** #endif
  43:Drivers/CMSIS/Include/cmsis_gcc.h **** #ifndef   __INLINE
  44:Drivers/CMSIS/Include/cmsis_gcc.h ****   #define __INLINE                               inline
  45:Drivers/CMSIS/Include/cmsis_gcc.h **** #endif
  46:Drivers/CMSIS/Include/cmsis_gcc.h **** #ifndef   __STATIC_INLINE
  47:Drivers/CMSIS/Include/cmsis_gcc.h ****   #define __STATIC_INLINE                        static inline
  48:Drivers/CMSIS/Include/cmsis_gcc.h **** #endif
  49:Drivers/CMSIS/Include/cmsis_gcc.h **** #ifndef   __STATIC_FORCEINLINE                 
  50:Drivers/CMSIS/Include/cmsis_gcc.h ****   #define __STATIC_FORCEINLINE                   __attribute__((always_inline)) static inline
  51:Drivers/CMSIS/Include/cmsis_gcc.h **** #endif                                           
  52:Drivers/CMSIS/Include/cmsis_gcc.h **** #ifndef   __NO_RETURN
  53:Drivers/CMSIS/Include/cmsis_gcc.h ****   #define __NO_RETURN                            __attribute__((__noreturn__))
  54:Drivers/CMSIS/Include/cmsis_gcc.h **** #endif
  55:Drivers/CMSIS/Include/cmsis_gcc.h **** #ifndef   __USED
  56:Drivers/CMSIS/Include/cmsis_gcc.h ****   #define __USED                                 __attribute__((used))
  57:Drivers/CMSIS/Include/cmsis_gcc.h **** #endif
  58:Drivers/CMSIS/Include/cmsis_gcc.h **** #ifndef   __WEAK
  59:Drivers/CMSIS/Include/cmsis_gcc.h ****   #define __WEAK                                 __attribute__((weak))
  60:Drivers/CMSIS/Include/cmsis_gcc.h **** #endif
  61:Drivers/CMSIS/Include/cmsis_gcc.h **** #ifndef   __PACKED
ARM GAS  C:\Users\User\AppData\Local\Temp\cc3QJOlW.s 			page 27


  62:Drivers/CMSIS/Include/cmsis_gcc.h ****   #define __PACKED                               __attribute__((packed, aligned(1)))
  63:Drivers/CMSIS/Include/cmsis_gcc.h **** #endif
  64:Drivers/CMSIS/Include/cmsis_gcc.h **** #ifndef   __PACKED_STRUCT
  65:Drivers/CMSIS/Include/cmsis_gcc.h ****   #define __PACKED_STRUCT                        struct __attribute__((packed, aligned(1)))
  66:Drivers/CMSIS/Include/cmsis_gcc.h **** #endif
  67:Drivers/CMSIS/Include/cmsis_gcc.h **** #ifndef   __PACKED_UNION
  68:Drivers/CMSIS/Include/cmsis_gcc.h ****   #define __PACKED_UNION                         union __attribute__((packed, aligned(1)))
  69:Drivers/CMSIS/Include/cmsis_gcc.h **** #endif
  70:Drivers/CMSIS/Include/cmsis_gcc.h **** #ifndef   __UNALIGNED_UINT32        /* deprecated */
  71:Drivers/CMSIS/Include/cmsis_gcc.h ****   #pragma GCC diagnostic push
  72:Drivers/CMSIS/Include/cmsis_gcc.h ****   #pragma GCC diagnostic ignored "-Wpacked"
  73:Drivers/CMSIS/Include/cmsis_gcc.h ****   #pragma GCC diagnostic ignored "-Wattributes"
  74:Drivers/CMSIS/Include/cmsis_gcc.h ****   struct __attribute__((packed)) T_UINT32 { uint32_t v; };
  75:Drivers/CMSIS/Include/cmsis_gcc.h ****   #pragma GCC diagnostic pop
  76:Drivers/CMSIS/Include/cmsis_gcc.h ****   #define __UNALIGNED_UINT32(x)                  (((struct T_UINT32 *)(x))->v)
  77:Drivers/CMSIS/Include/cmsis_gcc.h **** #endif
  78:Drivers/CMSIS/Include/cmsis_gcc.h **** #ifndef   __UNALIGNED_UINT16_WRITE
  79:Drivers/CMSIS/Include/cmsis_gcc.h ****   #pragma GCC diagnostic push
  80:Drivers/CMSIS/Include/cmsis_gcc.h ****   #pragma GCC diagnostic ignored "-Wpacked"
  81:Drivers/CMSIS/Include/cmsis_gcc.h ****   #pragma GCC diagnostic ignored "-Wattributes"
  82:Drivers/CMSIS/Include/cmsis_gcc.h ****   __PACKED_STRUCT T_UINT16_WRITE { uint16_t v; };
  83:Drivers/CMSIS/Include/cmsis_gcc.h ****   #pragma GCC diagnostic pop
  84:Drivers/CMSIS/Include/cmsis_gcc.h ****   #define __UNALIGNED_UINT16_WRITE(addr, val)    (void)((((struct T_UINT16_WRITE *)(void *)(addr))-
  85:Drivers/CMSIS/Include/cmsis_gcc.h **** #endif
  86:Drivers/CMSIS/Include/cmsis_gcc.h **** #ifndef   __UNALIGNED_UINT16_READ
  87:Drivers/CMSIS/Include/cmsis_gcc.h ****   #pragma GCC diagnostic push
  88:Drivers/CMSIS/Include/cmsis_gcc.h ****   #pragma GCC diagnostic ignored "-Wpacked"
  89:Drivers/CMSIS/Include/cmsis_gcc.h ****   #pragma GCC diagnostic ignored "-Wattributes"
  90:Drivers/CMSIS/Include/cmsis_gcc.h ****   __PACKED_STRUCT T_UINT16_READ { uint16_t v; };
  91:Drivers/CMSIS/Include/cmsis_gcc.h ****   #pragma GCC diagnostic pop
  92:Drivers/CMSIS/Include/cmsis_gcc.h ****   #define __UNALIGNED_UINT16_READ(addr)          (((const struct T_UINT16_READ *)(const void *)(add
  93:Drivers/CMSIS/Include/cmsis_gcc.h **** #endif
  94:Drivers/CMSIS/Include/cmsis_gcc.h **** #ifndef   __UNALIGNED_UINT32_WRITE
  95:Drivers/CMSIS/Include/cmsis_gcc.h ****   #pragma GCC diagnostic push
  96:Drivers/CMSIS/Include/cmsis_gcc.h ****   #pragma GCC diagnostic ignored "-Wpacked"
  97:Drivers/CMSIS/Include/cmsis_gcc.h ****   #pragma GCC diagnostic ignored "-Wattributes"
  98:Drivers/CMSIS/Include/cmsis_gcc.h ****   __PACKED_STRUCT T_UINT32_WRITE { uint32_t v; };
  99:Drivers/CMSIS/Include/cmsis_gcc.h ****   #pragma GCC diagnostic pop
 100:Drivers/CMSIS/Include/cmsis_gcc.h ****   #define __UNALIGNED_UINT32_WRITE(addr, val)    (void)((((struct T_UINT32_WRITE *)(void *)(addr))-
 101:Drivers/CMSIS/Include/cmsis_gcc.h **** #endif
 102:Drivers/CMSIS/Include/cmsis_gcc.h **** #ifndef   __UNALIGNED_UINT32_READ
 103:Drivers/CMSIS/Include/cmsis_gcc.h ****   #pragma GCC diagnostic push
 104:Drivers/CMSIS/Include/cmsis_gcc.h ****   #pragma GCC diagnostic ignored "-Wpacked"
 105:Drivers/CMSIS/Include/cmsis_gcc.h ****   #pragma GCC diagnostic ignored "-Wattributes"
 106:Drivers/CMSIS/Include/cmsis_gcc.h ****   __PACKED_STRUCT T_UINT32_READ { uint32_t v; };
 107:Drivers/CMSIS/Include/cmsis_gcc.h ****   #pragma GCC diagnostic pop
 108:Drivers/CMSIS/Include/cmsis_gcc.h ****   #define __UNALIGNED_UINT32_READ(addr)          (((const struct T_UINT32_READ *)(const void *)(add
 109:Drivers/CMSIS/Include/cmsis_gcc.h **** #endif
 110:Drivers/CMSIS/Include/cmsis_gcc.h **** #ifndef   __ALIGNED
 111:Drivers/CMSIS/Include/cmsis_gcc.h ****   #define __ALIGNED(x)                           __attribute__((aligned(x)))
 112:Drivers/CMSIS/Include/cmsis_gcc.h **** #endif
 113:Drivers/CMSIS/Include/cmsis_gcc.h **** #ifndef   __RESTRICT
 114:Drivers/CMSIS/Include/cmsis_gcc.h ****   #define __RESTRICT                             __restrict
 115:Drivers/CMSIS/Include/cmsis_gcc.h **** #endif
 116:Drivers/CMSIS/Include/cmsis_gcc.h **** 
 117:Drivers/CMSIS/Include/cmsis_gcc.h **** 
 118:Drivers/CMSIS/Include/cmsis_gcc.h **** /* ###########################  Core Function Access  ########################### */
ARM GAS  C:\Users\User\AppData\Local\Temp\cc3QJOlW.s 			page 28


 119:Drivers/CMSIS/Include/cmsis_gcc.h **** /** \ingroup  CMSIS_Core_FunctionInterface
 120:Drivers/CMSIS/Include/cmsis_gcc.h ****     \defgroup CMSIS_Core_RegAccFunctions CMSIS Core Register Access Functions
 121:Drivers/CMSIS/Include/cmsis_gcc.h ****   @{
 122:Drivers/CMSIS/Include/cmsis_gcc.h ****  */
 123:Drivers/CMSIS/Include/cmsis_gcc.h **** 
 124:Drivers/CMSIS/Include/cmsis_gcc.h **** /**
 125:Drivers/CMSIS/Include/cmsis_gcc.h ****   \brief   Enable IRQ Interrupts
 126:Drivers/CMSIS/Include/cmsis_gcc.h ****   \details Enables IRQ interrupts by clearing the I-bit in the CPSR.
 127:Drivers/CMSIS/Include/cmsis_gcc.h ****            Can only be executed in Privileged modes.
 128:Drivers/CMSIS/Include/cmsis_gcc.h ****  */
 129:Drivers/CMSIS/Include/cmsis_gcc.h **** __STATIC_FORCEINLINE void __enable_irq(void)
 130:Drivers/CMSIS/Include/cmsis_gcc.h **** {
 131:Drivers/CMSIS/Include/cmsis_gcc.h ****   __ASM volatile ("cpsie i" : : : "memory");
 132:Drivers/CMSIS/Include/cmsis_gcc.h **** }
 133:Drivers/CMSIS/Include/cmsis_gcc.h **** 
 134:Drivers/CMSIS/Include/cmsis_gcc.h **** 
 135:Drivers/CMSIS/Include/cmsis_gcc.h **** /**
 136:Drivers/CMSIS/Include/cmsis_gcc.h ****   \brief   Disable IRQ Interrupts
 137:Drivers/CMSIS/Include/cmsis_gcc.h ****   \details Disables IRQ interrupts by setting the I-bit in the CPSR.
 138:Drivers/CMSIS/Include/cmsis_gcc.h ****            Can only be executed in Privileged modes.
 139:Drivers/CMSIS/Include/cmsis_gcc.h ****  */
 140:Drivers/CMSIS/Include/cmsis_gcc.h **** __STATIC_FORCEINLINE void __disable_irq(void)
 1006              		.loc 2 140 27 view .LVU262
 1007              	.LBB5:
 141:Drivers/CMSIS/Include/cmsis_gcc.h **** {
 142:Drivers/CMSIS/Include/cmsis_gcc.h ****   __ASM volatile ("cpsid i" : : : "memory");
 1008              		.loc 2 142 3 view .LVU263
 1009              		.syntax unified
 1010              	@ 142 "Drivers/CMSIS/Include/cmsis_gcc.h" 1
 1011 0000 72B6     		cpsid i
 1012              	@ 0 "" 2
 1013              		.thumb
 1014              		.syntax unified
 1015              	.L73:
 1016              	.LBE5:
 1017              	.LBE4:
 395:Core/Src/main.c ****   while (1)
 1018              		.loc 1 395 3 discriminator 1 view .LVU264
 396:Core/Src/main.c ****   {
 397:Core/Src/main.c ****   }
 1019              		.loc 1 397 3 discriminator 1 view .LVU265
 395:Core/Src/main.c ****   while (1)
 1020              		.loc 1 395 9 discriminator 1 view .LVU266
 1021 0002 FEE7     		b	.L73
 1022              		.cfi_endproc
 1023              	.LFE135:
 1025              		.section	.text.SystemClock_Config,"ax",%progbits
 1026              		.align	1
 1027              		.global	SystemClock_Config
 1028              		.syntax unified
 1029              		.thumb
 1030              		.thumb_func
 1032              	SystemClock_Config:
 1033              	.LFB133:
 336:Core/Src/main.c ****   RCC_OscInitTypeDef RCC_OscInitStruct = {0};
 1034              		.loc 1 336 1 view -0
 1035              		.cfi_startproc
ARM GAS  C:\Users\User\AppData\Local\Temp\cc3QJOlW.s 			page 29


 1036              		@ args = 0, pretend = 0, frame = 88
 1037              		@ frame_needed = 0, uses_anonymous_args = 0
 1038 0000 00B5     		push	{lr}
 1039              	.LCFI9:
 1040              		.cfi_def_cfa_offset 4
 1041              		.cfi_offset 14, -4
 1042 0002 97B0     		sub	sp, sp, #92
 1043              	.LCFI10:
 1044              		.cfi_def_cfa_offset 96
 337:Core/Src/main.c ****   RCC_ClkInitTypeDef RCC_ClkInitStruct = {0};
 1045              		.loc 1 337 3 view .LVU268
 337:Core/Src/main.c ****   RCC_ClkInitTypeDef RCC_ClkInitStruct = {0};
 1046              		.loc 1 337 22 is_stmt 0 view .LVU269
 1047 0004 2822     		movs	r2, #40
 1048 0006 0021     		movs	r1, #0
 1049 0008 0CA8     		add	r0, sp, #48
 1050 000a FFF7FEFF 		bl	memset
 1051              	.LVL61:
 338:Core/Src/main.c ****   RCC_PeriphCLKInitTypeDef PeriphClkInit = {0};
 1052              		.loc 1 338 3 is_stmt 1 view .LVU270
 338:Core/Src/main.c ****   RCC_PeriphCLKInitTypeDef PeriphClkInit = {0};
 1053              		.loc 1 338 22 is_stmt 0 view .LVU271
 1054 000e 0023     		movs	r3, #0
 1055 0010 0793     		str	r3, [sp, #28]
 1056 0012 0893     		str	r3, [sp, #32]
 1057 0014 0993     		str	r3, [sp, #36]
 1058 0016 0A93     		str	r3, [sp, #40]
 1059 0018 0B93     		str	r3, [sp, #44]
 339:Core/Src/main.c **** 
 1060              		.loc 1 339 3 is_stmt 1 view .LVU272
 339:Core/Src/main.c **** 
 1061              		.loc 1 339 28 is_stmt 0 view .LVU273
 1062 001a 0193     		str	r3, [sp, #4]
 1063 001c 0293     		str	r3, [sp, #8]
 1064 001e 0393     		str	r3, [sp, #12]
 1065 0020 0493     		str	r3, [sp, #16]
 1066 0022 0593     		str	r3, [sp, #20]
 1067 0024 0693     		str	r3, [sp, #24]
 344:Core/Src/main.c ****   RCC_OscInitStruct.HSIState = RCC_HSI_ON;
 1068              		.loc 1 344 3 is_stmt 1 view .LVU274
 344:Core/Src/main.c ****   RCC_OscInitStruct.HSIState = RCC_HSI_ON;
 1069              		.loc 1 344 36 is_stmt 0 view .LVU275
 1070 0026 0223     		movs	r3, #2
 1071 0028 0C93     		str	r3, [sp, #48]
 345:Core/Src/main.c ****   RCC_OscInitStruct.HSICalibrationValue = RCC_HSICALIBRATION_DEFAULT;
 1072              		.loc 1 345 3 is_stmt 1 view .LVU276
 345:Core/Src/main.c ****   RCC_OscInitStruct.HSICalibrationValue = RCC_HSICALIBRATION_DEFAULT;
 1073              		.loc 1 345 30 is_stmt 0 view .LVU277
 1074 002a 0122     		movs	r2, #1
 1075 002c 1092     		str	r2, [sp, #64]
 346:Core/Src/main.c ****   RCC_OscInitStruct.PLL.PLLState = RCC_PLL_ON;
 1076              		.loc 1 346 3 is_stmt 1 view .LVU278
 346:Core/Src/main.c ****   RCC_OscInitStruct.PLL.PLLState = RCC_PLL_ON;
 1077              		.loc 1 346 41 is_stmt 0 view .LVU279
 1078 002e 1022     		movs	r2, #16
 1079 0030 1192     		str	r2, [sp, #68]
 347:Core/Src/main.c ****   RCC_OscInitStruct.PLL.PLLSource = RCC_PLLSOURCE_HSI;
ARM GAS  C:\Users\User\AppData\Local\Temp\cc3QJOlW.s 			page 30


 1080              		.loc 1 347 3 is_stmt 1 view .LVU280
 347:Core/Src/main.c ****   RCC_OscInitStruct.PLL.PLLSource = RCC_PLLSOURCE_HSI;
 1081              		.loc 1 347 34 is_stmt 0 view .LVU281
 1082 0032 1393     		str	r3, [sp, #76]
 348:Core/Src/main.c ****   RCC_OscInitStruct.PLL.PLLMUL = RCC_PLL_MUL16;
 1083              		.loc 1 348 3 is_stmt 1 view .LVU282
 349:Core/Src/main.c ****   if (HAL_RCC_OscConfig(&RCC_OscInitStruct) != HAL_OK)
 1084              		.loc 1 349 3 view .LVU283
 349:Core/Src/main.c ****   if (HAL_RCC_OscConfig(&RCC_OscInitStruct) != HAL_OK)
 1085              		.loc 1 349 32 is_stmt 0 view .LVU284
 1086 0034 4FF46013 		mov	r3, #3670016
 1087 0038 1593     		str	r3, [sp, #84]
 350:Core/Src/main.c ****   {
 1088              		.loc 1 350 3 is_stmt 1 view .LVU285
 350:Core/Src/main.c ****   {
 1089              		.loc 1 350 7 is_stmt 0 view .LVU286
 1090 003a 0CA8     		add	r0, sp, #48
 1091 003c FFF7FEFF 		bl	HAL_RCC_OscConfig
 1092              	.LVL62:
 350:Core/Src/main.c ****   {
 1093              		.loc 1 350 6 view .LVU287
 1094 0040 C8B9     		cbnz	r0, .L79
 357:Core/Src/main.c ****                               |RCC_CLOCKTYPE_PCLK1|RCC_CLOCKTYPE_PCLK2;
 1095              		.loc 1 357 3 is_stmt 1 view .LVU288
 357:Core/Src/main.c ****                               |RCC_CLOCKTYPE_PCLK1|RCC_CLOCKTYPE_PCLK2;
 1096              		.loc 1 357 31 is_stmt 0 view .LVU289
 1097 0042 0F23     		movs	r3, #15
 1098 0044 0793     		str	r3, [sp, #28]
 359:Core/Src/main.c ****   RCC_ClkInitStruct.AHBCLKDivider = RCC_SYSCLK_DIV1;
 1099              		.loc 1 359 3 is_stmt 1 view .LVU290
 359:Core/Src/main.c ****   RCC_ClkInitStruct.AHBCLKDivider = RCC_SYSCLK_DIV1;
 1100              		.loc 1 359 34 is_stmt 0 view .LVU291
 1101 0046 0221     		movs	r1, #2
 1102 0048 0891     		str	r1, [sp, #32]
 360:Core/Src/main.c ****   RCC_ClkInitStruct.APB1CLKDivider = RCC_HCLK_DIV2;
 1103              		.loc 1 360 3 is_stmt 1 view .LVU292
 360:Core/Src/main.c ****   RCC_ClkInitStruct.APB1CLKDivider = RCC_HCLK_DIV2;
 1104              		.loc 1 360 35 is_stmt 0 view .LVU293
 1105 004a 0023     		movs	r3, #0
 1106 004c 0993     		str	r3, [sp, #36]
 361:Core/Src/main.c ****   RCC_ClkInitStruct.APB2CLKDivider = RCC_HCLK_DIV1;
 1107              		.loc 1 361 3 is_stmt 1 view .LVU294
 361:Core/Src/main.c ****   RCC_ClkInitStruct.APB2CLKDivider = RCC_HCLK_DIV1;
 1108              		.loc 1 361 36 is_stmt 0 view .LVU295
 1109 004e 4FF48062 		mov	r2, #1024
 1110 0052 0A92     		str	r2, [sp, #40]
 362:Core/Src/main.c **** 
 1111              		.loc 1 362 3 is_stmt 1 view .LVU296
 362:Core/Src/main.c **** 
 1112              		.loc 1 362 36 is_stmt 0 view .LVU297
 1113 0054 0B93     		str	r3, [sp, #44]
 364:Core/Src/main.c ****   {
 1114              		.loc 1 364 3 is_stmt 1 view .LVU298
 364:Core/Src/main.c ****   {
 1115              		.loc 1 364 7 is_stmt 0 view .LVU299
 1116 0056 07A8     		add	r0, sp, #28
 1117 0058 FFF7FEFF 		bl	HAL_RCC_ClockConfig
ARM GAS  C:\Users\User\AppData\Local\Temp\cc3QJOlW.s 			page 31


 1118              	.LVL63:
 364:Core/Src/main.c ****   {
 1119              		.loc 1 364 6 view .LVU300
 1120 005c 68B9     		cbnz	r0, .L80
 368:Core/Src/main.c ****   PeriphClkInit.Tim1ClockSelection = RCC_TIM1CLK_HCLK;
 1121              		.loc 1 368 3 is_stmt 1 view .LVU301
 368:Core/Src/main.c ****   PeriphClkInit.Tim1ClockSelection = RCC_TIM1CLK_HCLK;
 1122              		.loc 1 368 38 is_stmt 0 view .LVU302
 1123 005e 4FF48053 		mov	r3, #4096
 1124 0062 0193     		str	r3, [sp, #4]
 369:Core/Src/main.c ****   if (HAL_RCCEx_PeriphCLKConfig(&PeriphClkInit) != HAL_OK)
 1125              		.loc 1 369 3 is_stmt 1 view .LVU303
 369:Core/Src/main.c ****   if (HAL_RCCEx_PeriphCLKConfig(&PeriphClkInit) != HAL_OK)
 1126              		.loc 1 369 36 is_stmt 0 view .LVU304
 1127 0064 0023     		movs	r3, #0
 1128 0066 0693     		str	r3, [sp, #24]
 370:Core/Src/main.c ****   {
 1129              		.loc 1 370 3 is_stmt 1 view .LVU305
 370:Core/Src/main.c ****   {
 1130              		.loc 1 370 7 is_stmt 0 view .LVU306
 1131 0068 01A8     		add	r0, sp, #4
 1132 006a FFF7FEFF 		bl	HAL_RCCEx_PeriphCLKConfig
 1133              	.LVL64:
 370:Core/Src/main.c ****   {
 1134              		.loc 1 370 6 view .LVU307
 1135 006e 30B9     		cbnz	r0, .L81
 374:Core/Src/main.c **** 
 1136              		.loc 1 374 1 view .LVU308
 1137 0070 17B0     		add	sp, sp, #92
 1138              	.LCFI11:
 1139              		.cfi_remember_state
 1140              		.cfi_def_cfa_offset 4
 1141              		@ sp needed
 1142 0072 5DF804FB 		ldr	pc, [sp], #4
 1143              	.L79:
 1144              	.LCFI12:
 1145              		.cfi_restore_state
 352:Core/Src/main.c ****   }
 1146              		.loc 1 352 5 is_stmt 1 view .LVU309
 1147 0076 FFF7FEFF 		bl	Error_Handler
 1148              	.LVL65:
 1149              	.L80:
 366:Core/Src/main.c ****   }
 1150              		.loc 1 366 5 view .LVU310
 1151 007a FFF7FEFF 		bl	Error_Handler
 1152              	.LVL66:
 1153              	.L81:
 372:Core/Src/main.c ****   }
 1154              		.loc 1 372 5 view .LVU311
 1155 007e FFF7FEFF 		bl	Error_Handler
 1156              	.LVL67:
 1157              		.cfi_endproc
 1158              	.LFE133:
 1160              		.section	.text.main,"ax",%progbits
 1161              		.align	1
 1162              		.global	main
 1163              		.syntax unified
ARM GAS  C:\Users\User\AppData\Local\Temp\cc3QJOlW.s 			page 32


 1164              		.thumb
 1165              		.thumb_func
 1167              	main:
 1168              	.LFB132:
 250:Core/Src/main.c ****   /* USER CODE BEGIN 1 */
 1169              		.loc 1 250 1 view -0
 1170              		.cfi_startproc
 1171              		@ Volatile: function does not return.
 1172              		@ args = 0, pretend = 0, frame = 0
 1173              		@ frame_needed = 0, uses_anonymous_args = 0
 1174 0000 08B5     		push	{r3, lr}
 1175              	.LCFI13:
 1176              		.cfi_def_cfa_offset 8
 1177              		.cfi_offset 3, -8
 1178              		.cfi_offset 14, -4
 257:Core/Src/main.c **** 
 1179              		.loc 1 257 3 view .LVU313
 1180 0002 FFF7FEFF 		bl	HAL_Init
 1181              	.LVL68:
 264:Core/Src/main.c **** 
 1182              		.loc 1 264 3 view .LVU314
 1183 0006 FFF7FEFF 		bl	SystemClock_Config
 1184              	.LVL69:
 271:Core/Src/main.c ****   MX_DMA_Init();
 1185              		.loc 1 271 3 view .LVU315
 1186 000a FFF7FEFF 		bl	MX_GPIO_Init
 1187              	.LVL70:
 272:Core/Src/main.c ****   MX_USART2_UART_Init();
 1188              		.loc 1 272 3 view .LVU316
 1189 000e FFF7FEFF 		bl	MX_DMA_Init
 1190              	.LVL71:
 273:Core/Src/main.c ****   MX_ADC1_Init();
 1191              		.loc 1 273 3 view .LVU317
 1192 0012 FFF7FEFF 		bl	MX_USART2_UART_Init
 1193              	.LVL72:
 274:Core/Src/main.c ****   MX_ADC2_Init();
 1194              		.loc 1 274 3 view .LVU318
 1195 0016 FFF7FEFF 		bl	MX_ADC1_Init
 1196              	.LVL73:
 275:Core/Src/main.c ****   MX_TIM1_Init();
 1197              		.loc 1 275 3 view .LVU319
 1198 001a FFF7FEFF 		bl	MX_ADC2_Init
 1199              	.LVL74:
 276:Core/Src/main.c ****   MX_TIM3_Init();
 1200              		.loc 1 276 3 view .LVU320
 1201 001e FFF7FEFF 		bl	MX_TIM1_Init
 1202              	.LVL75:
 277:Core/Src/main.c ****   MX_TIM2_Init();
 1203              		.loc 1 277 3 view .LVU321
 1204 0022 FFF7FEFF 		bl	MX_TIM3_Init
 1205              	.LVL76:
 278:Core/Src/main.c ****   /* USER CODE BEGIN 2 */
 1206              		.loc 1 278 3 view .LVU322
 1207 0026 FFF7FEFF 		bl	MX_TIM2_Init
 1208              	.LVL77:
 280:Core/Src/main.c ****   HAL_GPIO_WritePin(LED_3_GPIO_Port,LED_3_Pin,1);
 1209              		.loc 1 280 3 view .LVU323
ARM GAS  C:\Users\User\AppData\Local\Temp\cc3QJOlW.s 			page 33


 1210 002a 434C     		ldr	r4, .L90
 1211 002c 0122     		movs	r2, #1
 1212 002e 2021     		movs	r1, #32
 1213 0030 2046     		mov	r0, r4
 1214 0032 FFF7FEFF 		bl	HAL_GPIO_WritePin
 1215              	.LVL78:
 281:Core/Src/main.c ****   HAL_GPIO_WritePin(LED_4_GPIO_Port,LED_4_Pin,1);
 1216              		.loc 1 281 3 view .LVU324
 1217 0036 0122     		movs	r2, #1
 1218 0038 4021     		movs	r1, #64
 1219 003a 2046     		mov	r0, r4
 1220 003c FFF7FEFF 		bl	HAL_GPIO_WritePin
 1221              	.LVL79:
 282:Core/Src/main.c ****   HAL_TIM_Base_Start_IT(&htim2);
 1222              		.loc 1 282 3 view .LVU325
 1223 0040 0122     		movs	r2, #1
 1224 0042 8021     		movs	r1, #128
 1225 0044 2046     		mov	r0, r4
 1226 0046 FFF7FEFF 		bl	HAL_GPIO_WritePin
 1227              	.LVL80:
 283:Core/Src/main.c ****   HAL_TIM_Base_Start_IT(&htim3);
 1228              		.loc 1 283 3 view .LVU326
 1229 004a 3C48     		ldr	r0, .L90+4
 1230 004c FFF7FEFF 		bl	HAL_TIM_Base_Start_IT
 1231              	.LVL81:
 284:Core/Src/main.c ****   if(HAL_TIM_PWM_Start(&htim1, TIM_CHANNEL_1) != HAL_OK) { Error_Handler(); }
 1232              		.loc 1 284 3 view .LVU327
 1233 0050 3B48     		ldr	r0, .L90+8
 1234 0052 FFF7FEFF 		bl	HAL_TIM_Base_Start_IT
 1235              	.LVL82:
 285:Core/Src/main.c ****   HAL_GPIO_WritePin(LED_4_GPIO_Port,LED_4_Pin,0);
 1236              		.loc 1 285 3 view .LVU328
 285:Core/Src/main.c ****   HAL_GPIO_WritePin(LED_4_GPIO_Port,LED_4_Pin,0);
 1237              		.loc 1 285 6 is_stmt 0 view .LVU329
 1238 0056 0021     		movs	r1, #0
 1239 0058 3A48     		ldr	r0, .L90+12
 1240 005a FFF7FEFF 		bl	HAL_TIM_PWM_Start
 1241              	.LVL83:
 285:Core/Src/main.c ****   HAL_GPIO_WritePin(LED_4_GPIO_Port,LED_4_Pin,0);
 1242              		.loc 1 285 5 view .LVU330
 1243 005e 08B1     		cbz	r0, .L83
 285:Core/Src/main.c ****   HAL_GPIO_WritePin(LED_4_GPIO_Port,LED_4_Pin,0);
 1244              		.loc 1 285 60 is_stmt 1 discriminator 1 view .LVU331
 1245 0060 FFF7FEFF 		bl	Error_Handler
 1246              	.LVL84:
 1247              	.L83:
 286:Core/Src/main.c ****   if(HAL_TIM_PWM_Start(&htim1, TIM_CHANNEL_3) != HAL_OK) { Error_Handler(); }
 1248              		.loc 1 286 3 view .LVU332
 1249 0064 0022     		movs	r2, #0
 1250 0066 8021     		movs	r1, #128
 1251 0068 3348     		ldr	r0, .L90
 1252 006a FFF7FEFF 		bl	HAL_GPIO_WritePin
 1253              	.LVL85:
 287:Core/Src/main.c ****   HAL_GPIO_WritePin(LED_3_GPIO_Port,LED_3_Pin,0);
 1254              		.loc 1 287 3 view .LVU333
 287:Core/Src/main.c ****   HAL_GPIO_WritePin(LED_3_GPIO_Port,LED_3_Pin,0);
 1255              		.loc 1 287 6 is_stmt 0 view .LVU334
ARM GAS  C:\Users\User\AppData\Local\Temp\cc3QJOlW.s 			page 34


 1256 006e 0821     		movs	r1, #8
 1257 0070 3448     		ldr	r0, .L90+12
 1258 0072 FFF7FEFF 		bl	HAL_TIM_PWM_Start
 1259              	.LVL86:
 287:Core/Src/main.c ****   HAL_GPIO_WritePin(LED_3_GPIO_Port,LED_3_Pin,0);
 1260              		.loc 1 287 5 view .LVU335
 1261 0076 08B1     		cbz	r0, .L84
 287:Core/Src/main.c ****   HAL_GPIO_WritePin(LED_3_GPIO_Port,LED_3_Pin,0);
 1262              		.loc 1 287 60 is_stmt 1 discriminator 1 view .LVU336
 1263 0078 FFF7FEFF 		bl	Error_Handler
 1264              	.LVL87:
 1265              	.L84:
 288:Core/Src/main.c ****   if(HAL_ADC_Start_DMA(&hadc1, (uint32_t *) analog1, 2) != HAL_OK){
 1266              		.loc 1 288 3 view .LVU337
 1267 007c 0022     		movs	r2, #0
 1268 007e 4021     		movs	r1, #64
 1269 0080 2D48     		ldr	r0, .L90
 1270 0082 FFF7FEFF 		bl	HAL_GPIO_WritePin
 1271              	.LVL88:
 289:Core/Src/main.c ****     Error_Handler();
 1272              		.loc 1 289 3 view .LVU338
 289:Core/Src/main.c ****     Error_Handler();
 1273              		.loc 1 289 6 is_stmt 0 view .LVU339
 1274 0086 0222     		movs	r2, #2
 1275 0088 2F49     		ldr	r1, .L90+16
 1276 008a 3048     		ldr	r0, .L90+20
 1277 008c FFF7FEFF 		bl	HAL_ADC_Start_DMA
 1278              	.LVL89:
 289:Core/Src/main.c ****     Error_Handler();
 1279              		.loc 1 289 5 view .LVU340
 1280 0090 08B1     		cbz	r0, .L85
 290:Core/Src/main.c ****   }
 1281              		.loc 1 290 5 is_stmt 1 view .LVU341
 1282 0092 FFF7FEFF 		bl	Error_Handler
 1283              	.LVL90:
 1284              	.L85:
 292:Core/Src/main.c ****   if(HAL_ADC_Start_DMA(&hadc2, (uint32_t *) analog2, 3) != HAL_OK){
 1285              		.loc 1 292 3 view .LVU342
 1286 0096 0022     		movs	r2, #0
 1287 0098 2021     		movs	r1, #32
 1288 009a 2748     		ldr	r0, .L90
 1289 009c FFF7FEFF 		bl	HAL_GPIO_WritePin
 1290              	.LVL91:
 293:Core/Src/main.c ****     Error_Handler();
 1291              		.loc 1 293 3 view .LVU343
 293:Core/Src/main.c ****     Error_Handler();
 1292              		.loc 1 293 6 is_stmt 0 view .LVU344
 1293 00a0 0322     		movs	r2, #3
 1294 00a2 2B49     		ldr	r1, .L90+24
 1295 00a4 2B48     		ldr	r0, .L90+28
 1296 00a6 FFF7FEFF 		bl	HAL_ADC_Start_DMA
 1297              	.LVL92:
 293:Core/Src/main.c ****     Error_Handler();
 1298              		.loc 1 293 5 view .LVU345
 1299 00aa 08B3     		cbz	r0, .L86
 294:Core/Src/main.c ****   }
 1300              		.loc 1 294 5 is_stmt 1 view .LVU346
ARM GAS  C:\Users\User\AppData\Local\Temp\cc3QJOlW.s 			page 35


 1301 00ac FFF7FEFF 		bl	Error_Handler
 1302              	.LVL93:
 1303              	.L87:
 298:Core/Src/main.c ****       __HAL_TIM_SET_COMPARE(&htim1, TIM_CHANNEL_1,0);
 1304              		.loc 1 298 7 view .LVU347
 1305 00b0 0122     		movs	r2, #1
 1306 00b2 4FF48051 		mov	r1, #4096
 1307 00b6 4FF09040 		mov	r0, #1207959552
 1308 00ba FFF7FEFF 		bl	HAL_GPIO_WritePin
 1309              	.LVL94:
 299:Core/Src/main.c ****       HAL_GPIO_WritePin(GPIOA, GPIO_PIN_9, 0);
 1310              		.loc 1 299 7 view .LVU348
 1311 00be 214D     		ldr	r5, .L90+12
 1312 00c0 2B68     		ldr	r3, [r5]
 1313 00c2 0024     		movs	r4, #0
 1314 00c4 5C63     		str	r4, [r3, #52]
 300:Core/Src/main.c ****       __HAL_TIM_SET_COMPARE(&htim1, TIM_CHANNEL_3,0);
 1315              		.loc 1 300 7 view .LVU349
 1316 00c6 2246     		mov	r2, r4
 1317 00c8 4FF40071 		mov	r1, #512
 1318 00cc 4FF09040 		mov	r0, #1207959552
 1319 00d0 FFF7FEFF 		bl	HAL_GPIO_WritePin
 1320              	.LVL95:
 301:Core/Src/main.c ****       button_state = HAL_GPIO_ReadPin(KEY1_GPIO_Port,KEY1_Pin);
 1321              		.loc 1 301 7 view .LVU350
 1322 00d4 2B68     		ldr	r3, [r5]
 1323 00d6 DC63     		str	r4, [r3, #60]
 302:Core/Src/main.c ****       HAL_GPIO_WritePin(LED_3_GPIO_Port,LED_3_Pin,0);
 1324              		.loc 1 302 7 view .LVU351
 302:Core/Src/main.c ****       HAL_GPIO_WritePin(LED_3_GPIO_Port,LED_3_Pin,0);
 1325              		.loc 1 302 22 is_stmt 0 view .LVU352
 1326 00d8 174D     		ldr	r5, .L90
 1327 00da 0821     		movs	r1, #8
 1328 00dc 2846     		mov	r0, r5
 1329 00de FFF7FEFF 		bl	HAL_GPIO_ReadPin
 1330              	.LVL96:
 302:Core/Src/main.c ****       HAL_GPIO_WritePin(LED_3_GPIO_Port,LED_3_Pin,0);
 1331              		.loc 1 302 20 view .LVU353
 1332 00e2 1D4B     		ldr	r3, .L90+32
 1333 00e4 1870     		strb	r0, [r3]
 303:Core/Src/main.c ****     }
 1334              		.loc 1 303 7 is_stmt 1 view .LVU354
 1335 00e6 2246     		mov	r2, r4
 1336 00e8 4021     		movs	r1, #64
 1337 00ea 2846     		mov	r0, r5
 1338 00ec FFF7FEFF 		bl	HAL_GPIO_WritePin
 1339              	.LVL97:
 1340              	.L86:
 297:Core/Src/main.c ****       HAL_GPIO_WritePin(GPIOA, GPIO_PIN_12, 1);
 1341              		.loc 1 297 10 view .LVU355
 297:Core/Src/main.c ****       HAL_GPIO_WritePin(GPIOA, GPIO_PIN_12, 1);
 1342              		.loc 1 297 11 is_stmt 0 view .LVU356
 1343 00f0 194B     		ldr	r3, .L90+32
 1344 00f2 1B78     		ldrb	r3, [r3]	@ zero_extendqisi2
 297:Core/Src/main.c ****       HAL_GPIO_WritePin(GPIOA, GPIO_PIN_12, 1);
 1345              		.loc 1 297 10 view .LVU357
 1346 00f4 002B     		cmp	r3, #0
ARM GAS  C:\Users\User\AppData\Local\Temp\cc3QJOlW.s 			page 36


 1347 00f6 DBD1     		bne	.L87
 305:Core/Src/main.c ****     button_state=1;
 1348              		.loc 1 305 5 is_stmt 1 view .LVU358
 1349 00f8 4FF47A70 		mov	r0, #1000
 1350 00fc FFF7FEFF 		bl	HAL_Delay
 1351              	.LVL98:
 306:Core/Src/main.c **** 
 1352              		.loc 1 306 5 view .LVU359
 306:Core/Src/main.c **** 
 1353              		.loc 1 306 17 is_stmt 0 view .LVU360
 1354 0100 154B     		ldr	r3, .L90+32
 1355 0102 0122     		movs	r2, #1
 1356 0104 1A70     		strb	r2, [r3]
 1357              	.L88:
 314:Core/Src/main.c ****     {
 1358              		.loc 1 314 5 is_stmt 1 discriminator 1 view .LVU361
 319:Core/Src/main.c ****       __HAL_TIM_SET_COMPARE(&htim1, TIM_CHANNEL_1,MotorL);
 1359              		.loc 1 319 7 discriminator 1 view .LVU362
 1360 0106 0122     		movs	r2, #1
 1361 0108 4FF48051 		mov	r1, #4096
 1362 010c 4FF09040 		mov	r0, #1207959552
 1363 0110 FFF7FEFF 		bl	HAL_GPIO_WritePin
 1364              	.LVL99:
 320:Core/Src/main.c ****       HAL_GPIO_WritePin(GPIOA, GPIO_PIN_9, 0);
 1365              		.loc 1 320 7 discriminator 1 view .LVU363
 1366 0114 0B4C     		ldr	r4, .L90+12
 1367 0116 2368     		ldr	r3, [r4]
 1368 0118 104A     		ldr	r2, .L90+36
 1369 011a 1268     		ldr	r2, [r2]
 1370 011c 5A63     		str	r2, [r3, #52]
 321:Core/Src/main.c ****       __HAL_TIM_SET_COMPARE(&htim1, TIM_CHANNEL_3,MotorR);
 1371              		.loc 1 321 7 discriminator 1 view .LVU364
 1372 011e 0022     		movs	r2, #0
 1373 0120 4FF40071 		mov	r1, #512
 1374 0124 4FF09040 		mov	r0, #1207959552
 1375 0128 FFF7FEFF 		bl	HAL_GPIO_WritePin
 1376              	.LVL100:
 322:Core/Src/main.c ****       //printf("%d\r\n",Side_SensorR);
 1377              		.loc 1 322 7 discriminator 1 view .LVU365
 1378 012c 2368     		ldr	r3, [r4]
 1379 012e 0C4A     		ldr	r2, .L90+40
 1380 0130 1268     		ldr	r2, [r2]
 1381 0132 DA63     		str	r2, [r3, #60]
 314:Core/Src/main.c ****     {
 1382              		.loc 1 314 11 discriminator 1 view .LVU366
 1383 0134 E7E7     		b	.L88
 1384              	.L91:
 1385 0136 00BF     		.align	2
 1386              	.L90:
 1387 0138 00040048 		.word	1207960576
 1388 013c 00000000 		.word	htim2
 1389 0140 00000000 		.word	htim3
 1390 0144 00000000 		.word	htim1
 1391 0148 00000000 		.word	.LANCHOR11
 1392 014c 00000000 		.word	hadc1
 1393 0150 00000000 		.word	.LANCHOR12
 1394 0154 00000000 		.word	hadc2
ARM GAS  C:\Users\User\AppData\Local\Temp\cc3QJOlW.s 			page 37


 1395 0158 00000000 		.word	.LANCHOR25
 1396 015c 00000000 		.word	.LANCHOR20
 1397 0160 00000000 		.word	.LANCHOR19
 1398              		.cfi_endproc
 1399              	.LFE132:
 1401              		.global	button_state
 1402              		.global	analog2
 1403              		.global	analog1
 1404              		.global	buf
 1405              		.global	CommSpeed
 1406              		.global	Stime
 1407              		.global	stopFlg
 1408              		.global	timeFlg
 1409              		.global	turnFlg
 1410              		.global	SensVal_IBuf
 1411              		.global	SensVal_I
 1412              		.global	DGainCLB
 1413              		.global	IGainCLB
 1414              		.global	PGainCLB
 1415              		.global	FlagR
 1416              		.global	FlagL
 1417              		.global	Flag
 1418              		.global	Curve_Sens
 1419              		.global	Side_SensL
 1420              		.global	Side_SensR
 1421              		.global	SensL
 1422              		.global	SensR
 1423              		.global	Curve_Sensor
 1424              		.global	Side_SensorL
 1425              		.global	Side_SensorR
 1426              		.global	SensorL
 1427              		.global	SensorR
 1428              		.global	SensValBuf
 1429              		.global	ErrFlg
 1430              		.global	MotorR
 1431              		.global	MotorL
 1432              		.global	MotorR_Rev
 1433              		.global	MotorL_Rev
 1434              		.global	ledval
 1435              		.global	timer1
 1436              		.section	.bss.Curve_Sens,"aw",%nobits
 1437              		.align	2
 1438              		.set	.LANCHOR6,. + 0
 1441              	Curve_Sens:
 1442 0000 00000000 		.space	36
 1442      00000000 
 1442      00000000 
 1442      00000000 
 1442      00000000 
 1443              		.section	.bss.Curve_Sensor,"aw",%nobits
 1444              		.align	2
 1445              		.set	.LANCHOR9,. + 0
 1448              	Curve_Sensor:
 1449 0000 00000000 		.space	4
 1450              		.section	.bss.DGainCLB,"aw",%nobits
 1451              		.align	3
 1454              	DGainCLB:
ARM GAS  C:\Users\User\AppData\Local\Temp\cc3QJOlW.s 			page 38


 1455 0000 00000000 		.space	8
 1455      00000000 
 1456              		.section	.bss.ErrFlg,"aw",%nobits
 1457              		.align	2
 1460              	ErrFlg:
 1461 0000 00000000 		.space	4
 1462              		.section	.bss.Flag,"aw",%nobits
 1463              		.align	2
 1464              		.set	.LANCHOR22,. + 0
 1467              	Flag:
 1468 0000 00000000 		.space	4
 1469              		.section	.bss.FlagL,"aw",%nobits
 1470              		.align	2
 1471              		.set	.LANCHOR23,. + 0
 1474              	FlagL:
 1475 0000 00000000 		.space	4
 1476              		.section	.bss.FlagR,"aw",%nobits
 1477              		.align	2
 1478              		.set	.LANCHOR24,. + 0
 1481              	FlagR:
 1482 0000 00000000 		.space	4
 1483              		.section	.bss.IGainCLB,"aw",%nobits
 1484              		.align	3
 1487              	IGainCLB:
 1488 0000 00000000 		.space	8
 1488      00000000 
 1489              		.section	.bss.MotorL,"aw",%nobits
 1490              		.align	2
 1491              		.set	.LANCHOR20,. + 0
 1494              	MotorL:
 1495 0000 00000000 		.space	4
 1496              		.section	.bss.MotorL_Rev,"aw",%nobits
 1497              		.align	2
 1500              	MotorL_Rev:
 1501 0000 00000000 		.space	4
 1502              		.section	.bss.MotorR,"aw",%nobits
 1503              		.align	2
 1504              		.set	.LANCHOR19,. + 0
 1507              	MotorR:
 1508 0000 00000000 		.space	4
 1509              		.section	.bss.MotorR_Rev,"aw",%nobits
 1510              		.align	2
 1513              	MotorR_Rev:
 1514 0000 00000000 		.space	4
 1515              		.section	.bss.PGainCLB,"aw",%nobits
 1516              		.align	3
 1519              	PGainCLB:
 1520 0000 00000000 		.space	8
 1520      00000000 
 1521              		.section	.bss.SensL,"aw",%nobits
 1522              		.align	2
 1523              		.set	.LANCHOR1,. + 0
 1526              	SensL:
 1527 0000 00000000 		.space	36
 1527      00000000 
 1527      00000000 
 1527      00000000 
ARM GAS  C:\Users\User\AppData\Local\Temp\cc3QJOlW.s 			page 39


 1527      00000000 
 1528              		.section	.bss.SensR,"aw",%nobits
 1529              		.align	2
 1530              		.set	.LANCHOR0,. + 0
 1533              	SensR:
 1534 0000 00000000 		.space	36
 1534      00000000 
 1534      00000000 
 1534      00000000 
 1534      00000000 
 1535              		.section	.bss.SensValBuf,"aw",%nobits
 1536              		.align	2
 1537              		.set	.LANCHOR18,. + 0
 1540              	SensValBuf:
 1541 0000 00000000 		.space	4
 1542              		.section	.bss.SensVal_I,"aw",%nobits
 1543              		.align	3
 1544              		.set	.LANCHOR16,. + 0
 1547              	SensVal_I:
 1548 0000 00000000 		.space	8
 1548      00000000 
 1549              		.section	.bss.SensVal_IBuf,"aw",%nobits
 1550              		.align	3
 1551              		.set	.LANCHOR17,. + 0
 1554              	SensVal_IBuf:
 1555 0000 00000000 		.space	8
 1555      00000000 
 1556              		.section	.bss.SensorL,"aw",%nobits
 1557              		.align	2
 1558              		.set	.LANCHOR3,. + 0
 1561              	SensorL:
 1562 0000 00000000 		.space	4
 1563              		.section	.bss.SensorR,"aw",%nobits
 1564              		.align	2
 1565              		.set	.LANCHOR2,. + 0
 1568              	SensorR:
 1569 0000 00000000 		.space	4
 1570              		.section	.bss.Side_SensL,"aw",%nobits
 1571              		.align	2
 1572              		.set	.LANCHOR5,. + 0
 1575              	Side_SensL:
 1576 0000 00000000 		.space	36
 1576      00000000 
 1576      00000000 
 1576      00000000 
 1576      00000000 
 1577              		.section	.bss.Side_SensR,"aw",%nobits
 1578              		.align	2
 1579              		.set	.LANCHOR4,. + 0
 1582              	Side_SensR:
 1583 0000 00000000 		.space	36
 1583      00000000 
 1583      00000000 
 1583      00000000 
 1583      00000000 
 1584              		.section	.bss.Side_SensorL,"aw",%nobits
 1585              		.align	2
ARM GAS  C:\Users\User\AppData\Local\Temp\cc3QJOlW.s 			page 40


 1586              		.set	.LANCHOR8,. + 0
 1589              	Side_SensorL:
 1590 0000 00000000 		.space	4
 1591              		.section	.bss.Side_SensorR,"aw",%nobits
 1592              		.align	2
 1593              		.set	.LANCHOR7,. + 0
 1596              	Side_SensorR:
 1597 0000 00000000 		.space	4
 1598              		.section	.bss.Stime,"aw",%nobits
 1599              		.set	.LANCHOR10,. + 0
 1602              	Stime:
 1603 0000 00       		.space	1
 1604              		.section	.bss.analog1,"aw",%nobits
 1605              		.align	2
 1606              		.set	.LANCHOR11,. + 0
 1609              	analog1:
 1610 0000 00000000 		.space	4
 1611              		.section	.bss.analog2,"aw",%nobits
 1612              		.align	2
 1613              		.set	.LANCHOR12,. + 0
 1616              	analog2:
 1617 0000 00000000 		.space	6
 1617      0000
 1618              		.section	.bss.buf,"aw",%nobits
 1619              		.align	2
 1622              	buf:
 1623 0000 00       		.space	1
 1624              		.section	.bss.stopFlg,"aw",%nobits
 1625              		.set	.LANCHOR14,. + 0
 1628              	stopFlg:
 1629 0000 00       		.space	1
 1630              		.section	.bss.timeFlg,"aw",%nobits
 1633              	timeFlg:
 1634 0000 00       		.space	1
 1635              		.section	.bss.timer1,"aw",%nobits
 1636              		.align	2
 1639              	timer1:
 1640 0000 00000000 		.space	4
 1641              		.section	.bss.turnFlg,"aw",%nobits
 1642              		.set	.LANCHOR15,. + 0
 1645              	turnFlg:
 1646 0000 00       		.space	1
 1647              		.section	.data.CommSpeed,"aw"
 1648              		.align	2
 1649              		.set	.LANCHOR13,. + 0
 1652              	CommSpeed:
 1653 0000 1C250000 		.word	9500
 1654              		.section	.data.button_state,"aw"
 1655              		.set	.LANCHOR25,. + 0
 1658              	button_state:
 1659 0000 01       		.byte	1
 1660              		.section	.data.ledval,"aw"
 1661              		.align	2
 1662              		.set	.LANCHOR21,. + 0
 1665              	ledval:
 1666 0000 01000000 		.word	1
 1667              		.text
ARM GAS  C:\Users\User\AppData\Local\Temp\cc3QJOlW.s 			page 41


 1668              	.Letext0:
 1669              		.file 3 "c:\\tools\\gcc-arm-none-eabi-10.3-2021.10\\arm-none-eabi\\include\\machine\\_default_type
 1670              		.file 4 "c:\\tools\\gcc-arm-none-eabi-10.3-2021.10\\arm-none-eabi\\include\\sys\\_stdint.h"
 1671              		.file 5 "Drivers/CMSIS/Device/ST/STM32F3xx/Include/stm32f303x8.h"
 1672              		.file 6 "Drivers/CMSIS/Device/ST/STM32F3xx/Include/stm32f3xx.h"
 1673              		.file 7 "Drivers/STM32F3xx_HAL_Driver/Inc/stm32f3xx_hal_def.h"
 1674              		.file 8 "Drivers/STM32F3xx_HAL_Driver/Inc/stm32f3xx_hal_rcc.h"
 1675              		.file 9 "Drivers/STM32F3xx_HAL_Driver/Inc/stm32f3xx_hal_rcc_ex.h"
 1676              		.file 10 "Drivers/STM32F3xx_HAL_Driver/Inc/stm32f3xx_hal_dma.h"
 1677              		.file 11 "Drivers/STM32F3xx_HAL_Driver/Inc/stm32f3xx_hal_adc_ex.h"
 1678              		.file 12 "Drivers/STM32F3xx_HAL_Driver/Inc/stm32f3xx_hal_adc.h"
 1679              		.file 13 "Drivers/STM32F3xx_HAL_Driver/Inc/stm32f3xx_hal_tim.h"
 1680              		.file 14 "Drivers/STM32F3xx_HAL_Driver/Inc/stm32f3xx_hal_uart.h"
 1681              		.file 15 "Core/Inc/adc.h"
 1682              		.file 16 "Core/Inc/tim.h"
 1683              		.file 17 "Core/Inc/usart.h"
 1684              		.file 18 "Drivers/STM32F3xx_HAL_Driver/Inc/stm32f3xx_hal.h"
 1685              		.file 19 "Core/Inc/gpio.h"
 1686              		.file 20 "Core/Inc/dma.h"
 1687              		.file 21 "Drivers/STM32F3xx_HAL_Driver/Inc/stm32f3xx_hal_gpio.h"
 1688              		.file 22 "<built-in>"
ARM GAS  C:\Users\User\AppData\Local\Temp\cc3QJOlW.s 			page 42


DEFINED SYMBOLS
                            *ABS*:00000000 main.c
C:\Users\User\AppData\Local\Temp\cc3QJOlW.s:20     .text.SensUp:00000000 $t
C:\Users\User\AppData\Local\Temp\cc3QJOlW.s:26     .text.SensUp:00000000 SensUp
C:\Users\User\AppData\Local\Temp\cc3QJOlW.s:134    .text.SensUp:00000068 $d
C:\Users\User\AppData\Local\Temp\cc3QJOlW.s:142    .text.Side_SensUp:00000000 $t
C:\Users\User\AppData\Local\Temp\cc3QJOlW.s:148    .text.Side_SensUp:00000000 Side_SensUp
C:\Users\User\AppData\Local\Temp\cc3QJOlW.s:282    .text.Side_SensUp:00000088 $d
C:\Users\User\AppData\Local\Temp\cc3QJOlW.s:292    .text.sensGet:00000000 $t
C:\Users\User\AppData\Local\Temp\cc3QJOlW.s:298    .text.sensGet:00000000 sensGet
C:\Users\User\AppData\Local\Temp\cc3QJOlW.s:370    .text.sensGet:0000004c $d
C:\Users\User\AppData\Local\Temp\cc3QJOlW.s:390    .text.LineTrace:00000000 $t
C:\Users\User\AppData\Local\Temp\cc3QJOlW.s:396    .text.LineTrace:00000000 LineTrace
C:\Users\User\AppData\Local\Temp\cc3QJOlW.s:731    .text.LineTrace:000001e0 $d
C:\Users\User\AppData\Local\Temp\cc3QJOlW.s:758    .text.stop:00000000 $t
C:\Users\User\AppData\Local\Temp\cc3QJOlW.s:764    .text.stop:00000000 stop
C:\Users\User\AppData\Local\Temp\cc3QJOlW.s:866    .text.stop:00000070 $d
C:\Users\User\AppData\Local\Temp\cc3QJOlW.s:876    .text.HAL_TIM_PeriodElapsedCallback:00000000 $t
C:\Users\User\AppData\Local\Temp\cc3QJOlW.s:882    .text.HAL_TIM_PeriodElapsedCallback:00000000 HAL_TIM_PeriodElapsedCallback
C:\Users\User\AppData\Local\Temp\cc3QJOlW.s:939    .text.HAL_TIM_PeriodElapsedCallback:00000030 $d
C:\Users\User\AppData\Local\Temp\cc3QJOlW.s:944    .text._write:00000000 $t
C:\Users\User\AppData\Local\Temp\cc3QJOlW.s:950    .text._write:00000000 _write
C:\Users\User\AppData\Local\Temp\cc3QJOlW.s:983    .text._write:00000014 $d
C:\Users\User\AppData\Local\Temp\cc3QJOlW.s:988    .text.Error_Handler:00000000 $t
C:\Users\User\AppData\Local\Temp\cc3QJOlW.s:994    .text.Error_Handler:00000000 Error_Handler
C:\Users\User\AppData\Local\Temp\cc3QJOlW.s:1026   .text.SystemClock_Config:00000000 $t
C:\Users\User\AppData\Local\Temp\cc3QJOlW.s:1032   .text.SystemClock_Config:00000000 SystemClock_Config
C:\Users\User\AppData\Local\Temp\cc3QJOlW.s:1161   .text.main:00000000 $t
C:\Users\User\AppData\Local\Temp\cc3QJOlW.s:1167   .text.main:00000000 main
C:\Users\User\AppData\Local\Temp\cc3QJOlW.s:1387   .text.main:00000138 $d
C:\Users\User\AppData\Local\Temp\cc3QJOlW.s:1658   .data.button_state:00000000 button_state
C:\Users\User\AppData\Local\Temp\cc3QJOlW.s:1616   .bss.analog2:00000000 analog2
C:\Users\User\AppData\Local\Temp\cc3QJOlW.s:1609   .bss.analog1:00000000 analog1
C:\Users\User\AppData\Local\Temp\cc3QJOlW.s:1622   .bss.buf:00000000 buf
C:\Users\User\AppData\Local\Temp\cc3QJOlW.s:1652   .data.CommSpeed:00000000 CommSpeed
C:\Users\User\AppData\Local\Temp\cc3QJOlW.s:1602   .bss.Stime:00000000 Stime
C:\Users\User\AppData\Local\Temp\cc3QJOlW.s:1628   .bss.stopFlg:00000000 stopFlg
C:\Users\User\AppData\Local\Temp\cc3QJOlW.s:1633   .bss.timeFlg:00000000 timeFlg
C:\Users\User\AppData\Local\Temp\cc3QJOlW.s:1645   .bss.turnFlg:00000000 turnFlg
C:\Users\User\AppData\Local\Temp\cc3QJOlW.s:1554   .bss.SensVal_IBuf:00000000 SensVal_IBuf
C:\Users\User\AppData\Local\Temp\cc3QJOlW.s:1547   .bss.SensVal_I:00000000 SensVal_I
C:\Users\User\AppData\Local\Temp\cc3QJOlW.s:1454   .bss.DGainCLB:00000000 DGainCLB
C:\Users\User\AppData\Local\Temp\cc3QJOlW.s:1487   .bss.IGainCLB:00000000 IGainCLB
C:\Users\User\AppData\Local\Temp\cc3QJOlW.s:1519   .bss.PGainCLB:00000000 PGainCLB
C:\Users\User\AppData\Local\Temp\cc3QJOlW.s:1481   .bss.FlagR:00000000 FlagR
C:\Users\User\AppData\Local\Temp\cc3QJOlW.s:1474   .bss.FlagL:00000000 FlagL
C:\Users\User\AppData\Local\Temp\cc3QJOlW.s:1467   .bss.Flag:00000000 Flag
C:\Users\User\AppData\Local\Temp\cc3QJOlW.s:1441   .bss.Curve_Sens:00000000 Curve_Sens
C:\Users\User\AppData\Local\Temp\cc3QJOlW.s:1575   .bss.Side_SensL:00000000 Side_SensL
C:\Users\User\AppData\Local\Temp\cc3QJOlW.s:1582   .bss.Side_SensR:00000000 Side_SensR
C:\Users\User\AppData\Local\Temp\cc3QJOlW.s:1526   .bss.SensL:00000000 SensL
C:\Users\User\AppData\Local\Temp\cc3QJOlW.s:1533   .bss.SensR:00000000 SensR
C:\Users\User\AppData\Local\Temp\cc3QJOlW.s:1448   .bss.Curve_Sensor:00000000 Curve_Sensor
C:\Users\User\AppData\Local\Temp\cc3QJOlW.s:1589   .bss.Side_SensorL:00000000 Side_SensorL
C:\Users\User\AppData\Local\Temp\cc3QJOlW.s:1596   .bss.Side_SensorR:00000000 Side_SensorR
C:\Users\User\AppData\Local\Temp\cc3QJOlW.s:1561   .bss.SensorL:00000000 SensorL
C:\Users\User\AppData\Local\Temp\cc3QJOlW.s:1568   .bss.SensorR:00000000 SensorR
ARM GAS  C:\Users\User\AppData\Local\Temp\cc3QJOlW.s 			page 43


C:\Users\User\AppData\Local\Temp\cc3QJOlW.s:1540   .bss.SensValBuf:00000000 SensValBuf
C:\Users\User\AppData\Local\Temp\cc3QJOlW.s:1460   .bss.ErrFlg:00000000 ErrFlg
C:\Users\User\AppData\Local\Temp\cc3QJOlW.s:1507   .bss.MotorR:00000000 MotorR
C:\Users\User\AppData\Local\Temp\cc3QJOlW.s:1494   .bss.MotorL:00000000 MotorL
C:\Users\User\AppData\Local\Temp\cc3QJOlW.s:1513   .bss.MotorR_Rev:00000000 MotorR_Rev
C:\Users\User\AppData\Local\Temp\cc3QJOlW.s:1500   .bss.MotorL_Rev:00000000 MotorL_Rev
C:\Users\User\AppData\Local\Temp\cc3QJOlW.s:1665   .data.ledval:00000000 ledval
C:\Users\User\AppData\Local\Temp\cc3QJOlW.s:1639   .bss.timer1:00000000 timer1
C:\Users\User\AppData\Local\Temp\cc3QJOlW.s:1437   .bss.Curve_Sens:00000000 $d
C:\Users\User\AppData\Local\Temp\cc3QJOlW.s:1444   .bss.Curve_Sensor:00000000 $d
C:\Users\User\AppData\Local\Temp\cc3QJOlW.s:1451   .bss.DGainCLB:00000000 $d
C:\Users\User\AppData\Local\Temp\cc3QJOlW.s:1457   .bss.ErrFlg:00000000 $d
C:\Users\User\AppData\Local\Temp\cc3QJOlW.s:1463   .bss.Flag:00000000 $d
C:\Users\User\AppData\Local\Temp\cc3QJOlW.s:1470   .bss.FlagL:00000000 $d
C:\Users\User\AppData\Local\Temp\cc3QJOlW.s:1477   .bss.FlagR:00000000 $d
C:\Users\User\AppData\Local\Temp\cc3QJOlW.s:1484   .bss.IGainCLB:00000000 $d
C:\Users\User\AppData\Local\Temp\cc3QJOlW.s:1490   .bss.MotorL:00000000 $d
C:\Users\User\AppData\Local\Temp\cc3QJOlW.s:1497   .bss.MotorL_Rev:00000000 $d
C:\Users\User\AppData\Local\Temp\cc3QJOlW.s:1503   .bss.MotorR:00000000 $d
C:\Users\User\AppData\Local\Temp\cc3QJOlW.s:1510   .bss.MotorR_Rev:00000000 $d
C:\Users\User\AppData\Local\Temp\cc3QJOlW.s:1516   .bss.PGainCLB:00000000 $d
C:\Users\User\AppData\Local\Temp\cc3QJOlW.s:1522   .bss.SensL:00000000 $d
C:\Users\User\AppData\Local\Temp\cc3QJOlW.s:1529   .bss.SensR:00000000 $d
C:\Users\User\AppData\Local\Temp\cc3QJOlW.s:1536   .bss.SensValBuf:00000000 $d
C:\Users\User\AppData\Local\Temp\cc3QJOlW.s:1543   .bss.SensVal_I:00000000 $d
C:\Users\User\AppData\Local\Temp\cc3QJOlW.s:1550   .bss.SensVal_IBuf:00000000 $d
C:\Users\User\AppData\Local\Temp\cc3QJOlW.s:1557   .bss.SensorL:00000000 $d
C:\Users\User\AppData\Local\Temp\cc3QJOlW.s:1564   .bss.SensorR:00000000 $d
C:\Users\User\AppData\Local\Temp\cc3QJOlW.s:1571   .bss.Side_SensL:00000000 $d
C:\Users\User\AppData\Local\Temp\cc3QJOlW.s:1578   .bss.Side_SensR:00000000 $d
C:\Users\User\AppData\Local\Temp\cc3QJOlW.s:1585   .bss.Side_SensorL:00000000 $d
C:\Users\User\AppData\Local\Temp\cc3QJOlW.s:1592   .bss.Side_SensorR:00000000 $d
C:\Users\User\AppData\Local\Temp\cc3QJOlW.s:1603   .bss.Stime:00000000 $d
C:\Users\User\AppData\Local\Temp\cc3QJOlW.s:1605   .bss.analog1:00000000 $d
C:\Users\User\AppData\Local\Temp\cc3QJOlW.s:1612   .bss.analog2:00000000 $d
C:\Users\User\AppData\Local\Temp\cc3QJOlW.s:1619   .bss.buf:00000000 $d
C:\Users\User\AppData\Local\Temp\cc3QJOlW.s:1629   .bss.stopFlg:00000000 $d
C:\Users\User\AppData\Local\Temp\cc3QJOlW.s:1634   .bss.timeFlg:00000000 $d
C:\Users\User\AppData\Local\Temp\cc3QJOlW.s:1636   .bss.timer1:00000000 $d
C:\Users\User\AppData\Local\Temp\cc3QJOlW.s:1646   .bss.turnFlg:00000000 $d
C:\Users\User\AppData\Local\Temp\cc3QJOlW.s:1648   .data.CommSpeed:00000000 $d
C:\Users\User\AppData\Local\Temp\cc3QJOlW.s:1661   .data.ledval:00000000 $d

UNDEFINED SYMBOLS
__aeabi_i2d
__aeabi_dadd
__aeabi_dcmpge
__aeabi_dcmple
__aeabi_dmul
__aeabi_dsub
__aeabi_ddiv
__aeabi_d2iz
HAL_GPIO_TogglePin
HAL_GPIO_WritePin
HAL_UART_Transmit
huart2
memset
ARM GAS  C:\Users\User\AppData\Local\Temp\cc3QJOlW.s 			page 44


HAL_RCC_OscConfig
HAL_RCC_ClockConfig
HAL_RCCEx_PeriphCLKConfig
HAL_Init
MX_GPIO_Init
MX_DMA_Init
MX_USART2_UART_Init
MX_ADC1_Init
MX_ADC2_Init
MX_TIM1_Init
MX_TIM3_Init
MX_TIM2_Init
HAL_TIM_Base_Start_IT
HAL_TIM_PWM_Start
HAL_ADC_Start_DMA
HAL_GPIO_ReadPin
HAL_Delay
htim2
htim3
htim1
hadc1
hadc2
